
host_fs.elf:     file format elf32-littlenios2
host_fs.elf
architecture: nios2:r1, flags 0x00000112:
EXEC_P, HAS_SYMS, D_PAGED
start address 0x08010000

Program Header:
    LOAD off    0x00001000 vaddr 0x04000000 paddr 0x04000000 align 2**12
         filesz 0x00000020 memsz 0x00000020 flags r-x
    LOAD off    0x00001020 vaddr 0x04000020 paddr 0x04000020 align 2**12
         filesz 0x00000210 memsz 0x00000210 flags r-x
    LOAD off    0x00002000 vaddr 0x08010000 paddr 0x08010000 align 2**12
         filesz 0x0000b580 memsz 0x0000b580 flags r-x
    LOAD off    0x0000d580 vaddr 0x0801b580 paddr 0x0801d08c align 2**12
         filesz 0x00001b0c memsz 0x00001b0c flags rw-
    LOAD off    0x0000fb98 vaddr 0x0801eb98 paddr 0x0801eb98 align 2**12
         filesz 0x00000000 memsz 0x000006f0 flags rw-

Sections:
Idx Name          Size      VMA       LMA       File off  Algn
  0 .entry        00000020  04000000  04000000  00001000  2**5
                  CONTENTS, ALLOC, LOAD, READONLY, CODE
  1 .exceptions   00000210  04000020  04000020  00001020  2**2
                  CONTENTS, ALLOC, LOAD, READONLY, CODE
  2 .text         0000af10  08010000  08010000  00002000  2**2
                  CONTENTS, ALLOC, LOAD, READONLY, CODE
  3 .rodata       00000670  0801af10  0801af10  0000cf10  2**2
                  CONTENTS, ALLOC, LOAD, READONLY, DATA
  4 .rwdata       00001b0c  0801b580  0801d08c  0000d580  2**2
                  CONTENTS, ALLOC, LOAD, DATA, SMALL_DATA
  5 .bss          000006f0  0801eb98  0801eb98  0000fb98  2**2
                  ALLOC, SMALL_DATA
  6 .sdram        00000000  04000230  04000230  0000f08c  2**0
                  CONTENTS
  7 .onchip_memory 00000000  0801f288  0801f288  0000f08c  2**0
                  CONTENTS
  8 .comment      00000023  00000000  00000000  0000f08c  2**0
                  CONTENTS, READONLY
  9 .debug_aranges 00000cc8  00000000  00000000  0000f0b0  2**3
                  CONTENTS, READONLY, DEBUGGING
 10 .debug_info   00022401  00000000  00000000  0000fd78  2**0
                  CONTENTS, READONLY, DEBUGGING
 11 .debug_abbrev 0000858b  00000000  00000000  00032179  2**0
                  CONTENTS, READONLY, DEBUGGING
 12 .debug_line   000097f9  00000000  00000000  0003a704  2**0
                  CONTENTS, READONLY, DEBUGGING
 13 .debug_frame  00001fe0  00000000  00000000  00043f00  2**2
                  CONTENTS, READONLY, DEBUGGING
 14 .debug_str    0000392a  00000000  00000000  00045ee0  2**0
                  CONTENTS, READONLY, DEBUGGING
 15 .debug_loc    00005ddd  00000000  00000000  0004980a  2**0
                  CONTENTS, READONLY, DEBUGGING
 16 .debug_alt_sim_info 00000010  00000000  00000000  0004f5e8  2**2
                  CONTENTS, READONLY, DEBUGGING
 17 .debug_ranges 000008a0  00000000  00000000  0004f5f8  2**3
                  CONTENTS, READONLY, DEBUGGING
 18 .thread_model 00000003  00000000  00000000  000531c6  2**0
                  CONTENTS, READONLY
 19 .cpu          00000008  00000000  00000000  000531c9  2**0
                  CONTENTS, READONLY
 20 .qsys         00000001  00000000  00000000  000531d1  2**0
                  CONTENTS, READONLY
 21 .simulation_enabled 00000001  00000000  00000000  000531d2  2**0
                  CONTENTS, READONLY
 22 .sysid_hash   00000004  00000000  00000000  000531d3  2**0
                  CONTENTS, READONLY
 23 .sysid_base   00000004  00000000  00000000  000531d7  2**0
                  CONTENTS, READONLY
 24 .sysid_time   00000004  00000000  00000000  000531db  2**0
                  CONTENTS, READONLY
 25 .stderr_dev   00000004  00000000  00000000  000531df  2**0
                  CONTENTS, READONLY
 26 .stdin_dev    00000004  00000000  00000000  000531e3  2**0
                  CONTENTS, READONLY
 27 .stdout_dev   00000004  00000000  00000000  000531e7  2**0
                  CONTENTS, READONLY
 28 .sopc_system_name 00000003  00000000  00000000  000531eb  2**0
                  CONTENTS, READONLY
 29 .quartus_project_dir 00000033  00000000  00000000  000531ee  2**0
                  CONTENTS, READONLY
 30 .jdi          0000389c  00000000  00000000  00053221  2**0
                  CONTENTS, READONLY
 31 .sopcinfo     0005a080  00000000  00000000  00056abd  2**0
                  CONTENTS, READONLY
SYMBOL TABLE:
04000000 l    d  .entry	00000000 .entry
04000020 l    d  .exceptions	00000000 .exceptions
08010000 l    d  .text	00000000 .text
0801af10 l    d  .rodata	00000000 .rodata
0801b580 l    d  .rwdata	00000000 .rwdata
0801eb98 l    d  .bss	00000000 .bss
04000230 l    d  .sdram	00000000 .sdram
0801f288 l    d  .onchip_memory	00000000 .onchip_memory
00000000 l    d  .comment	00000000 .comment
00000000 l    d  .debug_aranges	00000000 .debug_aranges
00000000 l    d  .debug_info	00000000 .debug_info
00000000 l    d  .debug_abbrev	00000000 .debug_abbrev
00000000 l    d  .debug_line	00000000 .debug_line
00000000 l    d  .debug_frame	00000000 .debug_frame
00000000 l    d  .debug_str	00000000 .debug_str
00000000 l    d  .debug_loc	00000000 .debug_loc
00000000 l    d  .debug_alt_sim_info	00000000 .debug_alt_sim_info
00000000 l    d  .debug_ranges	00000000 .debug_ranges
00000000 l    df *ABS*	00000000 ../host_fs_bsp//obj/HAL/src/crt0.o
08010038 l       .text	00000000 alt_after_alt_main
00000000 l    df *ABS*	00000000 alt_irq_handler.c
00000000 l    df *ABS*	00000000 alt_instruction_exception_entry.c
00000000 l    df *ABS*	00000000 main.c
00000000 l    df *ABS*	00000000 atoi.c
00000000 l    df *ABS*	00000000 exit.c
00000000 l    df *ABS*	00000000 fclose.c
00000000 l    df *ABS*	00000000 fflush.c
00000000 l    df *ABS*	00000000 findfp.c
080108ec l     F .text	00000008 __fp_unlock
08010900 l     F .text	0000019c __sinit.part.1
08010a9c l     F .text	00000008 __fp_lock
00000000 l    df *ABS*	00000000 fopen.c
00000000 l    df *ABS*	00000000 mallocr.c
00000000 l    df *ABS*	00000000 fseek.c
00000000 l    df *ABS*	00000000 fseeko.c
00000000 l    df *ABS*	00000000 fstatr.c
00000000 l    df *ABS*	00000000 fwalk.c
00000000 l    df *ABS*	00000000 getline.c
00000000 l    df *ABS*	00000000 impure.c
0801b580 l     O .rwdata	00000424 impure_data
00000000 l    df *ABS*	00000000 int_errno.c
00000000 l    df *ABS*	00000000 itoa.c
00000000 l    df *ABS*	00000000 makebuf.c
00000000 l    df *ABS*	00000000 mallocr.c
00000000 l    df *ABS*	00000000 memcpy.c
00000000 l    df *ABS*	00000000 memset.c
00000000 l    df *ABS*	00000000 openr.c
00000000 l    df *ABS*	00000000 refill.c
08012550 l     F .text	0000001c lflush
00000000 l    df *ABS*	00000000 sbrkr.c
00000000 l    df *ABS*	00000000 stdio.c
00000000 l    df *ABS*	00000000 strtok.c
00000000 l    df *ABS*	00000000 strtok_r.c
00000000 l    df *ABS*	00000000 strtol.c
00000000 l    df *ABS*	00000000 utoa.c
00000000 l    df *ABS*	00000000 writer.c
00000000 l    df *ABS*	00000000 closer.c
00000000 l    df *ABS*	00000000 __call_atexit.c
00000000 l    df *ABS*	00000000 ctype_.c
0801b3a1 l     O .rodata	00000180 _ctype_b
00000000 l    df *ABS*	00000000 flags.c
00000000 l    df *ABS*	00000000 getdelim.c
00000000 l    df *ABS*	00000000 isattyr.c
00000000 l    df *ABS*	00000000 lseekr.c
00000000 l    df *ABS*	00000000 readr.c
00000000 l    df *ABS*	00000000 realloc.c
00000000 l    df *ABS*	00000000 mallocr.c
00000000 l    df *ABS*	00000000 errno.c
00000000 l    df *ABS*	00000000 getc_u.c
00000000 l    df *ABS*	00000000 memmove.c
00000000 l    df *ABS*	00000000 rget.c
00000000 l    df *ABS*	00000000 lib2-divmod.c
00000000 l    df *ABS*	00000000 lib2-mul.c
00000000 l    df *ABS*	00000000 alt_close.c
08013c60 l     F .text	0000003c alt_get_errno
00000000 l    df *ABS*	00000000 alt_dev.c
08013d74 l     F .text	0000002c alt_dev_null_write
00000000 l    df *ABS*	00000000 alt_errno.c
00000000 l    df *ABS*	00000000 alt_exit.c
00000000 l    df *ABS*	00000000 alt_fstat.c
08013dd4 l     F .text	0000003c alt_get_errno
00000000 l    df *ABS*	00000000 alt_isatty.c
08013ec8 l     F .text	0000003c alt_get_errno
00000000 l    df *ABS*	00000000 alt_load.c
08013fb0 l     F .text	00000068 alt_load_section
00000000 l    df *ABS*	00000000 alt_lseek.c
0801409c l     F .text	0000003c alt_get_errno
00000000 l    df *ABS*	00000000 alt_main.c
00000000 l    df *ABS*	00000000 alt_malloc_lock.c
00000000 l    df *ABS*	00000000 alt_open.c
08014268 l     F .text	0000003c alt_get_errno
080142a4 l     F .text	000000ec alt_file_locked
00000000 l    df *ABS*	00000000 alt_printf.c
00000000 l    df *ABS*	00000000 alt_putchar.c
00000000 l    df *ABS*	00000000 alt_read.c
08014754 l     F .text	0000003c alt_get_errno
00000000 l    df *ABS*	00000000 alt_release_fd.c
00000000 l    df *ABS*	00000000 alt_sbrk.c
0801d034 l     O .rwdata	00000004 heap_end
00000000 l    df *ABS*	00000000 alt_write.c
080149c8 l     F .text	0000003c alt_get_errno
00000000 l    df *ABS*	00000000 alt_sys_init.c
08014b04 l     F .text	00000034 alt_dev_reg
0801bf54 l     O .rwdata	00001060 jtag
0801cfb4 l     O .rwdata	00000028 altera_hostfs
0801cfdc l     O .rwdata	0000002c Altera_UP_SD_Card_Avalon_Interface_0
00000000 l    df *ABS*	00000000 Altera_UP_SD_Card_Avalon_Interface.c
00000000 l    df *ABS*	00000000 altera_avalon_jtag_uart_fd.c
00000000 l    df *ABS*	00000000 altera_avalon_jtag_uart_init.c
08019194 l     F .text	0000020c altera_avalon_jtag_uart_irq
080193a0 l     F .text	000000a0 altera_avalon_jtag_uart_timeout
00000000 l    df *ABS*	00000000 altera_avalon_jtag_uart_ioctl.c
00000000 l    df *ABS*	00000000 altera_avalon_jtag_uart_read.c
00000000 l    df *ABS*	00000000 altera_avalon_jtag_uart_write.c
00000000 l    df *ABS*	00000000 altera_hostfs.c
0801d038 l     O .rwdata	00000009 hcinfo.2538
0801d044 l     O .rwdata	0000000a hcinfo.2551
0801d050 l     O .rwdata	00000009 hcinfo.2560
0801d05c l     O .rwdata	0000000a hcinfo.2573
0801d068 l     O .rwdata	0000000a hcinfo.2586
0801d074 l     O .rwdata	0000000a hcinfo.2612
00000000 l    df *ABS*	00000000 alt_alarm_start.c
00000000 l    df *ABS*	00000000 alt_dcache_flush_all.c
00000000 l    df *ABS*	00000000 alt_dev_llist_insert.c
08019fa8 l     F .text	0000003c alt_get_errno
00000000 l    df *ABS*	00000000 alt_find_dev.c
00000000 l    df *ABS*	00000000 alt_find_file.c
00000000 l    df *ABS*	00000000 alt_fs_reg.c
00000000 l    df *ABS*	00000000 alt_get_fd.c
00000000 l    df *ABS*	00000000 alt_icache_flush_all.c
00000000 l    df *ABS*	00000000 alt_iic.c
00000000 l    df *ABS*	00000000 alt_iic_isr_register.c
00000000 l    df *ABS*	00000000 alt_io_redirect.c
0801a624 l     F .text	000000e4 alt_open_fd
00000000 l    df *ABS*	00000000 alt_irq_vars.c
00000000 l    df *ABS*	00000000 alt_tick.c
00000000 l    df *ABS*	00000000 altera_nios2_gen2_irq.c
00000000 l    df *ABS*	00000000 memcmp.c
00000000 l    df *ABS*	00000000 putc.c
00000000 l    df *ABS*	00000000 strlen.c
00000000 l    df *ABS*	00000000 wbuf.c
00000000 l    df *ABS*	00000000 wsetup.c
0801ebf4 g     O .bss	00000004 alt_instruction_exception_handler
0801ebbc g     O .bss	00000004 aux_status_register
080131a0 g     F .text	00000054 _isatty_r
080141b4 g     F .text	0000006c alt_main
0801f188 g     O .bss	00000100 alt_irq
080131f4 g     F .text	00000060 _lseek_r
0801d08c g       *ABS*	00000000 __flash_rwdata_start
08012f90 g     F .text	000000ac __sflags
08014f40 g     F .text	000001a4 Check_for_Master_Boot_Record
0801f288 g       *ABS*	00000000 __alt_heap_start
08012984 g     F .text	00000008 strtok_r
08018da4 g     F .text	000001cc alt_up_sd_card_fclose
0801286c g     F .text	0000005c __sseek
08010c4c g     F .text	00000010 __sinit
0801ac64 g     F .text	00000140 __swbuf_r
08010aa4 g     F .text	00000078 __sfmoreglue
08014244 g     F .text	00000024 __malloc_unlock
080199d8 g     F .text	0000011c alt_hostfs_open
08013840 g     F .text	00000028 _getc_unlocked_r
0801ebe0 g     O .bss	00000004 current_sector_modified
080138a0 g     F .text	0000015c memmove
08010c34 g     F .text	00000018 _cleanup
080128e8 g     F .text	0000009c __strtok_r
08017974 g     F .text	000000c4 alt_up_sd_card_is_Present
08014c88 g     F .text	0000004c Save_Modified_Sector
0801a928 g     F .text	00000024 altera_nios2_gen2_irq_init
08013830 g     F .text	00000010 __errno
08013868 g     F .text	00000038 getc_unlocked
04000000 g     F .entry	0000000c __reset
0801ebd8 g     O .bss	00000004 fat_partition_size_in_512_byte_sectors
04000020 g       *ABS*	00000000 __flash_exceptions_start
0801165c g     F .text	0000005c _fstat_r
0801eb98 g     O .bss	00000004 errno
08013a70 g     F .text	00000014 __srget
080127e8 g     F .text	00000008 __seofread
0801ebac g     O .bss	00000004 alt_argv
08025008 g       *ABS*	00000000 _gp
08017f3c g     F .text	0000037c alt_up_sd_card_fopen
08017aa4 g     F .text	000000d0 alt_up_sd_card_find_first
0801ebcc g     O .bss	00000004 command_argument_register
0801303c g     F .text	00000164 __getdelim
0801bdd4 g     O .rwdata	00000180 alt_fd_list
08019c10 g     F .text	00000068 alt_hostfs_seek
080171d8 g     F .text	00000134 find_first_empty_record_in_root_directory
0801a088 g     F .text	00000090 alt_find_dev
08012280 g     F .text	00000148 memcpy
080101bc g     F .text	000001a0 sdTest
080108f4 g     F .text	0000000c _cleanup_r
0801a220 g     F .text	00000080 alt_fs_reg
0801a708 g     F .text	0000007c alt_io_redirect
0801a94c g     F .text	0000009c alt_exception_cause_generated_bad_addr
08016dc8 g     F .text	000001bc find_first_empty_cluster
080178b8 g     F .text	000000bc alt_up_sd_card_open_dev
08019598 g     F .text	0000021c altera_avalon_jtag_uart_read
08013b7c g     F .text	00000064 .hidden __udivsi3
08013f04 g     F .text	000000ac isatty
0801eba4 g     O .bss	00000004 __malloc_top_pad
080100e0 g     F .text	000000dc transferImage
080118b4 g     F .text	00000004 itoa
080160a8 g     F .text	000000b8 get_dir_divider_location
08012740 g     F .text	00000054 _sbrk_r
08015d78 g     F .text	000000c4 filename_to_upper_case
08019b38 g     F .text	0000006c alt_hostfs_read
080182b8 g     F .text	00000088 alt_up_sd_card_set_attributes
080150e4 g     F .text	0000027c Read_File_Record_At_Offset
08013254 g     F .text	00000060 _read_r
0801d02c g     O .rwdata	00000004 alt_max_fd
0801003c g     F .text	000000a4 printImage
08016944 g     F .text	00000484 find_file_in_directory
08010540 g     F .text	000000f0 _fclose_r
080108bc g     F .text	00000030 fflush
0801eba0 g     O .bss	00000004 __malloc_max_sbrked_mem
08017a38 g     F .text	0000006c alt_up_sd_card_is_FAT16
080140d8 g     F .text	000000dc lseek
0801d008 g     O .rwdata	00000004 _global_impure_ptr
080163fc g     F .text	00000548 get_home_directory_cluster_for_file
080132cc g     F .text	00000564 _realloc_r
0801f288 g       *ABS*	00000000 __bss_end
0801a534 g     F .text	000000f0 alt_iic_isr_register
0801a820 g     F .text	00000108 alt_tick
0801ebe4 g     O .bss	00000004 current_sector_index
08010c6c g     F .text	00000018 __fp_lock_all
0801a4e8 g     F .text	0000004c alt_ic_irq_enabled
0801a784 g     F .text	0000009c alt_alarm_stop
08012be4 g     F .text	0000001c strtol
08014e60 g     F .text	000000e0 mark_cluster
0801ebe8 g     O .bss	00000004 alt_irq_active
080111fc g     F .text	00000444 _fseeko_r
08019af4 g     F .text	00000044 alt_hostfs_close
040000fc g     F .exceptions	000000d4 alt_irq_handler
0801bdac g     O .rwdata	00000028 alt_dev_null
08011840 g     F .text	0000000c __getline
0801730c g     F .text	0000018c convert_filename_to_name_extension
08019f88 g     F .text	00000020 alt_dcache_flush_all
0801ebb8 g     O .bss	00000004 is_sd_card_formated_as_FAT16
08012d58 g     F .text	00000004 utoa
08016f84 g     F .text	00000254 find_first_empty_record_in_a_subdirectory
0801d08c g       *ABS*	00000000 __ram_rwdata_end
08010000 g       *ABS*	00000000 __alt_mem_onchip_memory
0801d024 g     O .rwdata	00000008 alt_dev_list
08014a04 g     F .text	00000100 write
0801aa64 g     F .text	000000a0 _putc_r
0801ebdc g     O .bss	00000004 device_pointer
0801b580 g       *ABS*	00000000 __ram_rodata_end
08013e10 g     F .text	000000b8 fstat
08013be0 g     F .text	00000058 .hidden __umodsi3
0801f288 g       *ABS*	00000000 end
08011640 g     F .text	0000001c fseeko
0801184c g     F .text	00000068 __itoa
080104fc g     F .text	0000000c _atoi_r
080111e0 g     F .text	0000001c fseek
080190d4 g     F .text	000000c0 altera_avalon_jtag_uart_init
040001d0 g     F .exceptions	00000060 alt_instruction_exception_entry
0801fa00 g       *ABS*	00000000 __alt_stack_pointer
080197b4 g     F .text	00000224 altera_avalon_jtag_uart_write
08010c5c g     F .text	00000004 __sfp_lock_acquire
08010ecc g     F .text	00000310 _free_r
080144ec g     F .text	0000022c alt_printf
080139fc g     F .text	00000074 __srget_r
08012e10 g     F .text	00000180 __call_exitprocs
0801d010 g     O .rwdata	00000004 __malloc_sbrk_base
08010000 g     F .text	0000003c _start
0801ebec g     O .bss	00000004 _alt_tick_rate
0801ebf0 g     O .bss	00000004 _alt_nticks
08014790 g     F .text	00000104 read
08014b70 g     F .text	00000064 alt_sys_init
080124f0 g     F .text	00000060 _open_r
08019440 g     F .text	00000068 altera_avalon_jtag_uart_close
08013c38 g     F .text	00000028 .hidden __mulsi3
0801b580 g       *ABS*	00000000 __ram_rwdata_start
0801af10 g       *ABS*	00000000 __ram_rodata_start
0801ebf8 g     O .bss	00000028 __malloc_current_mallinfo
0801ebb4 g     O .bss	00000004 initialized
080132b4 g     F .text	00000018 realloc
08018f70 g     F .text	00000060 altera_avalon_jtag_uart_read_fd
0801a2a0 g     F .text	000000c4 alt_get_fd
0801ec20 g     O .bss	00000014 search_data
08012dbc g     F .text	00000054 _close_r
080128d0 g     F .text	00000018 strtok
0801a9e8 g     F .text	0000007c memcmp
08019030 g     F .text	00000050 altera_avalon_jtag_uart_close_fd
0801f288 g       *ABS*	00000000 __alt_stack_base
08019080 g     F .text	00000054 altera_avalon_jtag_uart_ioctl_fd
0801adbc g     F .text	00000154 __swsetup_r
08010b1c g     F .text	00000118 __sfp
0801ec34 g     O .bss	00000054 boot_sector_data
0801b9a4 g     O .rwdata	00000408 __malloc_av_
08010c68 g     F .text	00000004 __sinit_lock_release
08012794 g     F .text	00000054 __sread
0801a118 g     F .text	00000108 alt_find_file
08019fe4 g     F .text	000000a4 alt_dev_llist_insert
08014220 g     F .text	00000024 __malloc_lock
08014918 g     F .text	000000b0 sbrk
08010860 g     F .text	0000005c _fflush_r
08012c00 g     F .text	00000158 __utoa
08010d90 g     F .text	00000018 fopen
0801eb98 g       *ABS*	00000000 __bss_start
080123c8 g     F .text	00000128 memset
0801035c g     F .text	00000194 main
0801ebb0 g     O .bss	00000004 alt_envp
0801eb9c g     O .bss	00000004 __malloc_max_total_mem
08018fd0 g     F .text	00000060 altera_avalon_jtag_uart_write_fd
0801ada4 g     F .text	00000018 __swbuf
08018340 g     F .text	00000088 alt_up_sd_card_get_attributes
08014bd4 g     F .text	000000b4 Write_Sector_Data
08018758 g     F .text	0000064c alt_up_sd_card_write
080128c8 g     F .text	00000008 __sclose
0801fa00 g       *ABS*	00000000 __alt_heap_limit
08010630 g     F .text	00000014 fclose
0801298c g     F .text	00000258 _strtol_r
08011a74 g     F .text	0000080c _malloc_r
0801d030 g     O .rwdata	00000004 alt_errno
080116b8 g     F .text	000000c4 _fwalk
0801ab04 g     F .text	000000c8 putc
08013a84 g     F .text	00000084 .hidden __divsi3
08010da8 g     F .text	00000124 _malloc_trim_r
0801ebc0 g     O .bss	00000004 status_register
0801ebc8 g     O .bss	00000004 command_register
0801af10 g       *ABS*	00000000 __flash_rodata_start
08014b38 g     F .text	00000038 alt_irq_init
08014894 g     F .text	00000084 alt_release_fd
08014dac g     F .text	000000b4 get_cluster_flag
08015360 g     F .text	0000028c Write_File_Record_At_Offset
08012d5c g     F .text	00000060 _write_r
080155ec g     F .text	000006a0 Check_for_DOS_FAT
08017498 g     F .text	000002d8 create_file
0801d00c g     O .rwdata	00000004 _impure_ptr
0801ebc4 g     O .bss	00000004 CSD_register_w0
0801eba8 g     O .bss	00000004 alt_argc
08010644 g     F .text	0000021c __sflush_r
080111dc g     F .text	00000004 _fseek_r
0801256c g     F .text	000001d4 __srefill_r
04000020 g       .exceptions	00000000 alt_irq_entry
08010c84 g     F .text	00000018 __fp_unlock_all
0801d01c g     O .rwdata	00000008 alt_fs_list
08015e3c g     F .text	0000026c check_file_name_for_FAT16_compliance
0801ebd0 g     O .bss	00000004 buffer_memory
08019ba4 g     F .text	0000006c alt_hostfs_write
04000020 g       *ABS*	00000000 __ram_exceptions_start
0801a384 g     F .text	00000050 alt_ic_isr_register
0801ebd4 g     O .bss	00000004 fat_partition_offset_in_512_byte_sectors
0801d08c g       *ABS*	00000000 _edata
0801f288 g       *ABS*	00000000 _end
0801ec88 g     O .bss	00000500 active_files
04000230 g       *ABS*	00000000 __ram_exceptions_end
08017770 g     F .text	00000148 copy_file_record_name_to_string
080194a8 g     F .text	000000f0 altera_avalon_jtag_uart_ioctl
08015c8c g     F .text	000000ec Look_for_FAT16
0801a45c g     F .text	0000008c alt_ic_irq_disable
080127f0 g     F .text	0000007c __swrite
0801d014 g     O .rwdata	00000004 __malloc_trim_threshold
08010508 g     F .text	00000038 exit
08017b74 g     F .text	000003c8 alt_up_sd_card_find_next
0801177c g     F .text	000000c4 _fwalk_reent
08013b08 g     F .text	00000074 .hidden __modsi3
0801d018 g     O .rwdata	00000004 __ctype_ptr__
08014cd4 g     F .text	000000d8 Read_Sector_Data
0801fa00 g       *ABS*	00000000 __alt_data_end
04000020 g     F .exceptions	00000000 alt_exception
08010c60 g     F .text	00000004 __sfp_lock_release
04000000 g       *ABS*	00000000 __alt_mem_sdram
080104f0 g     F .text	0000000c atoi
0801b2a0 g     O .rodata	00000101 _ctype_
08010c9c g     F .text	000000f4 _fopen_r
08013da0 g     F .text	00000034 _exit
08019e5c g     F .text	0000012c alt_alarm_start
080183c8 g     F .text	00000390 alt_up_sd_card_read
080118b8 g     F .text	000001bc __smakebuf_r
0801abcc g     F .text	00000098 strlen
08014390 g     F .text	0000015c open
08014718 g     F .text	0000003c alt_putchar
0801a364 g     F .text	00000020 alt_icache_flush_all
0801d080 g     O .rwdata	00000004 alt_priority_mask
0801a3d4 g     F .text	00000088 alt_ic_irq_enable
0801d084 g     O .rwdata	00000008 alt_alarm_list
08013c9c g     F .text	000000d8 close
08014018 g     F .text	00000084 alt_load
08016160 g     F .text	0000029c match_file_record_to_name_ext
08010c64 g     F .text	00000004 __sinit_lock_acquire
08019c78 g     F .text	000001e4 alt_hostfs_fstat



Disassembly of section .entry:

04000000 <__reset>:
 * Jump to the _start entry point in the .text section if reset code
 * is allowed or if optimizing for RTL simulation.
 */
#if defined(ALT_ALLOW_CODE_AT_RESET) || defined(ALT_SIM_OPTIMIZE)
    /* Jump to the _start entry point in the .text section. */
    movhi r1, %hi(_start)
 4000000:	00420074 	movhi	at,2049
    ori r1, r1, %lo(_start)
 4000004:	08400014 	ori	at,at,0
    jmp r1
 4000008:	0800683a 	jmp	at
	...

Disassembly of section .exceptions:

04000020 <alt_exception>:

#else /* ALT_EXCEPTION_STACK disabled */
        /* 
         * Reserve space on normal stack for registers about to be pushed.
         */
        addi  sp, sp, -76
 4000020:	deffed04 	addi	sp,sp,-76
         * documentation for details).
         *
         * Leave a gap in the stack frame at 4(sp) for the muldiv handler to
         * store zero into.
         */
        stw   ra,  0(sp)
 4000024:	dfc00015 	stw	ra,0(sp)
        stw   r1,   8(sp)
 4000028:	d8400215 	stw	at,8(sp)
        stw   r2,  12(sp)
 400002c:	d8800315 	stw	r2,12(sp)
        stw   r3,  16(sp)
 4000030:	d8c00415 	stw	r3,16(sp)
        stw   r4,  20(sp)
 4000034:	d9000515 	stw	r4,20(sp)
        stw   r5,  24(sp)
 4000038:	d9400615 	stw	r5,24(sp)
        stw   r6,  28(sp)
 400003c:	d9800715 	stw	r6,28(sp)
        stw   r7,  32(sp)
 4000040:	d9c00815 	stw	r7,32(sp)
        rdctl r5, estatus   /* Read early to avoid usage stall */
 4000044:	000b307a 	rdctl	r5,estatus
        stw   r8,  36(sp)
 4000048:	da000915 	stw	r8,36(sp)
        stw   r9,  40(sp)
 400004c:	da400a15 	stw	r9,40(sp)
        stw   r10, 44(sp)
 4000050:	da800b15 	stw	r10,44(sp)
        stw   r11, 48(sp)
 4000054:	dac00c15 	stw	r11,48(sp)
        stw   r12, 52(sp)
 4000058:	db000d15 	stw	r12,52(sp)
        stw   r13, 56(sp)
 400005c:	db400e15 	stw	r13,56(sp)
        stw   r14, 60(sp)
 4000060:	db800f15 	stw	r14,60(sp)
        stw   r15, 64(sp)
 4000064:	dbc01015 	stw	r15,64(sp)
        /*
         * ea-4 contains the address of the instruction being executed
         * when the exception occured. For interrupt exceptions, we will
         * will be re-issue the isntruction. Store it in 72(sp)
         */
        stw   r5,  68(sp)  /* estatus */
 4000068:	d9401115 	stw	r5,68(sp)
        addi  r15, ea, -4  /* instruction that caused exception */
 400006c:	ebffff04 	addi	r15,ea,-4
        stw   r15,  72(sp)
 4000070:	dbc01215 	stw	r15,72(sp)
#else
        /*
         * Test to see if the exception was a software exception or caused 
         * by an external interrupt, and vector accordingly.
         */
        rdctl r4, ipending
 4000074:	0009313a 	rdctl	r4,ipending
        andi  r2, r5, 1
 4000078:	2880004c 	andi	r2,r5,1
        beq   r2, zero, .Lnot_irq
 400007c:	10000326 	beq	r2,zero,400008c <alt_exception+0x6c>
        beq   r4, zero, .Lnot_irq
 4000080:	20000226 	beq	r4,zero,400008c <alt_exception+0x6c>
        /*
         * Now that all necessary registers have been preserved, call 
         * alt_irq_handler() to process the interrupts.
         */

        call alt_irq_handler
 4000084:	40000fc0 	call	40000fc <alt_irq_handler>

        .section .exceptions.irqreturn, "xa"

        br    .Lexception_exit
 4000088:	00000706 	br	40000a8 <alt_exception+0x88>
         * upon completion, so we write ea (address of instruction *after*
         * the one where the exception occured) into 72(sp). The actual
         * instruction that caused the exception is written in r2, which these
         * handlers will utilize.
         */
        stw ea, 72(sp) /* EA is PC+4 so will skip over instruction causing exception */
 400008c:	df401215 	stw	ea,72(sp)
.Lunknown_16bit:
        addi.n r4, r4, 2 /* Need PC+2 to skip over instruction causing exception */
        stw r4, 72(sp)

#else /* CDX is not Enabled and all instructions are 32bits */
        ldw r2, -4(ea) /* Instruction value that caused exception */
 4000090:	e8bfff17 	ldw	r2,-4(ea)
         * debugger is present) or go into an infinite loop since the
         * handling behavior is undefined; in that case we will not return here.
         */

        /* Load exception-causing address as first argument (r4) */
        addi   r4, ea, -4
 4000094:	e93fff04 	addi	r4,ea,-4

        /* Call the instruction-exception entry */
        call   alt_instruction_exception_entry
 4000098:	40001d00 	call	40001d0 <alt_instruction_exception_entry>
         * instruction
         *
         * Return code was 0: Skip. The instruction after the exception is
         * already stored in 72(sp).
         */
        bne   r2, r0, .Lexception_exit
 400009c:	1000021e 	bne	r2,zero,40000a8 <alt_exception+0x88>

        /*
         * Otherwise, modify 72(sp) to re-issue the instruction that caused the
         * exception.
         */
        addi  r15, ea, -4  /* instruction that caused exception */
 40000a0:	ebffff04 	addi	r15,ea,-4
        stw   r15,  72(sp)
 40000a4:	dbc01215 	stw	r15,72(sp)
        /* 
         * Restore the saved registers, so that all general purpose registers 
         * have been restored to their state at the time the interrupt occured.
         */

        ldw   r5,  68(sp)
 40000a8:	d9401117 	ldw	r5,68(sp)
        ldw   ea,  72(sp)  /* This becomes the PC once eret is executed */
 40000ac:	df401217 	ldw	ea,72(sp)
        ldw   ra,   0(sp)
 40000b0:	dfc00017 	ldw	ra,0(sp)

        wrctl estatus, r5
 40000b4:	2801707a 	wrctl	estatus,r5

        ldw   r1,   8(sp)
 40000b8:	d8400217 	ldw	at,8(sp)
        ldw   r2,  12(sp)
 40000bc:	d8800317 	ldw	r2,12(sp)
        ldw   r3,  16(sp)
 40000c0:	d8c00417 	ldw	r3,16(sp)
        ldw   r4,  20(sp)
 40000c4:	d9000517 	ldw	r4,20(sp)
        ldw   r5,  24(sp)
 40000c8:	d9400617 	ldw	r5,24(sp)
        ldw   r6,  28(sp)
 40000cc:	d9800717 	ldw	r6,28(sp)
        ldw   r7,  32(sp)
 40000d0:	d9c00817 	ldw	r7,32(sp)

#if defined(ALT_EXCEPTION_STACK) && defined(ALT_STACK_CHECK)
        ldw   et, %gprel(alt_exception_old_stack_limit)(gp)
#endif

        ldw   r8,  36(sp)
 40000d4:	da000917 	ldw	r8,36(sp)
        ldw   r9,  40(sp)
 40000d8:	da400a17 	ldw	r9,40(sp)
        ldw   r10, 44(sp)
 40000dc:	da800b17 	ldw	r10,44(sp)
        ldw   r11, 48(sp)
 40000e0:	dac00c17 	ldw	r11,48(sp)
        ldw   r12, 52(sp)
 40000e4:	db000d17 	ldw	r12,52(sp)
        ldw   r13, 56(sp)
 40000e8:	db400e17 	ldw	r13,56(sp)
        ldw   r14, 60(sp)
 40000ec:	db800f17 	ldw	r14,60(sp)
        ldw   r15, 64(sp)
 40000f0:	dbc01017 	ldw	r15,64(sp)
        stw   et, %gprel(alt_stack_limit_value)(gp)
        stw   zero, %gprel(alt_exception_old_stack_limit)(gp)
#endif /* ALT_STACK_CHECK */
        ldw   sp,  76(sp)
#else /* ALT_EXCEPTION_STACK disabled */
        addi  sp, sp, 76
 40000f4:	dec01304 	addi	sp,sp,76

        /*
         * Return to the interrupted instruction.
         */

        eret
 40000f8:	ef80083a 	eret

040000fc <alt_irq_handler>:
 * instruction is present if the macro ALT_CI_INTERRUPT_VECTOR defined.
 */

void alt_irq_handler (void) __attribute__ ((section (".exceptions")));
void alt_irq_handler (void)
{
 40000fc:	defff904 	addi	sp,sp,-28
 4000100:	dfc00615 	stw	ra,24(sp)
 4000104:	df000515 	stw	fp,20(sp)
 4000108:	df000504 	addi	fp,sp,20
  
  /*
   * Notify the operating system that we are at interrupt level.
   */ 
  
  ALT_OS_INT_ENTER();
 400010c:	0001883a 	nop
#ifndef NIOS2_EIC_PRESENT
static ALT_INLINE alt_u32 ALT_ALWAYS_INLINE alt_irq_pending (void)
{
  alt_u32 active;

  NIOS2_READ_IPENDING (active);
 4000110:	0005313a 	rdctl	r2,ipending
 4000114:	e0bffe15 	stw	r2,-8(fp)

  return active;
 4000118:	e0bffe17 	ldw	r2,-8(fp)
   * Consider the case where the high priority interupt is asserted during
   * the interrupt entry sequence for a lower priority interrupt to see why
   * this is the case.
   */

  active = alt_irq_pending ();
 400011c:	e0bffb15 	stw	r2,-20(fp)

  do
  {
    i = 0;
 4000120:	e03ffd15 	stw	zero,-12(fp)
    mask = 1;
 4000124:	00800044 	movi	r2,1
 4000128:	e0bffc15 	stw	r2,-16(fp)
     * called to clear the interrupt condition.
     */

    do
    {
      if (active & mask)
 400012c:	e0fffb17 	ldw	r3,-20(fp)
 4000130:	e0bffc17 	ldw	r2,-16(fp)
 4000134:	1884703a 	and	r2,r3,r2
 4000138:	10001426 	beq	r2,zero,400018c <alt_irq_handler+0x90>
      { 
#ifdef ALT_ENHANCED_INTERRUPT_API_PRESENT
        alt_irq[i].handler(alt_irq[i].context); 
 400013c:	008200b4 	movhi	r2,2050
 4000140:	10bc6204 	addi	r2,r2,-3704
 4000144:	e0fffd17 	ldw	r3,-12(fp)
 4000148:	180690fa 	slli	r3,r3,3
 400014c:	10c5883a 	add	r2,r2,r3
 4000150:	10c00017 	ldw	r3,0(r2)
 4000154:	008200b4 	movhi	r2,2050
 4000158:	10bc6204 	addi	r2,r2,-3704
 400015c:	e13ffd17 	ldw	r4,-12(fp)
 4000160:	200890fa 	slli	r4,r4,3
 4000164:	1105883a 	add	r2,r2,r4
 4000168:	10800104 	addi	r2,r2,4
 400016c:	10800017 	ldw	r2,0(r2)
 4000170:	1009883a 	mov	r4,r2
 4000174:	183ee83a 	callr	r3
#else
        alt_irq[i].handler(alt_irq[i].context, i); 
#endif
        break;
 4000178:	0001883a 	nop
#ifndef NIOS2_EIC_PRESENT
static ALT_INLINE alt_u32 ALT_ALWAYS_INLINE alt_irq_pending (void)
{
  alt_u32 active;

  NIOS2_READ_IPENDING (active);
 400017c:	0005313a 	rdctl	r2,ipending
 4000180:	e0bfff15 	stw	r2,-4(fp)

  return active;
 4000184:	e0bfff17 	ldw	r2,-4(fp)
 4000188:	00000706 	br	40001a8 <alt_irq_handler+0xac>
      }
      mask <<= 1;
 400018c:	e0bffc17 	ldw	r2,-16(fp)
 4000190:	1085883a 	add	r2,r2,r2
 4000194:	e0bffc15 	stw	r2,-16(fp)
      i++;
 4000198:	e0bffd17 	ldw	r2,-12(fp)
 400019c:	10800044 	addi	r2,r2,1
 40001a0:	e0bffd15 	stw	r2,-12(fp)

    } while (1);
 40001a4:	003fe106 	br	400012c <_gp+0xfbfdb124>

    active = alt_irq_pending ();
 40001a8:	e0bffb15 	stw	r2,-20(fp)
    
  } while (active);
 40001ac:	e0bffb17 	ldw	r2,-20(fp)
 40001b0:	103fdb1e 	bne	r2,zero,4000120 <_gp+0xfbfdb118>

  /*
   * Notify the operating system that interrupt processing is complete.
   */ 

  ALT_OS_INT_EXIT();
 40001b4:	0001883a 	nop
}
 40001b8:	0001883a 	nop
 40001bc:	e037883a 	mov	sp,fp
 40001c0:	dfc00117 	ldw	ra,4(sp)
 40001c4:	df000017 	ldw	fp,0(sp)
 40001c8:	dec00204 	addi	sp,sp,8
 40001cc:	f800283a 	ret

040001d0 <alt_instruction_exception_entry>:
 * that handler if it has been registered. Absent a handler, it will
 * break break or hang as discussed below.
 */
int 
alt_instruction_exception_entry (alt_u32 exception_pc)
{
 40001d0:	defffb04 	addi	sp,sp,-20
 40001d4:	dfc00415 	stw	ra,16(sp)
 40001d8:	df000315 	stw	fp,12(sp)
 40001dc:	df000304 	addi	fp,sp,12
 40001e0:	e13fff15 	stw	r4,-4(fp)
  cause = ( (cause & NIOS2_EXCEPTION_REG_CAUSE_MASK) >>
              NIOS2_EXCEPTION_REG_CAUSE_OFST );

  NIOS2_READ_BADADDR(badaddr);
#else
  cause = NIOS2_EXCEPTION_CAUSE_NOT_PRESENT;
 40001e4:	00bfffc4 	movi	r2,-1
 40001e8:	e0bffd15 	stw	r2,-12(fp)
  badaddr = 0;
 40001ec:	e03ffe15 	stw	zero,-8(fp)
#endif /* NIOS2_HAS_EXTRA_EXCEPTION_INFO */

  if(alt_instruction_exception_handler) {
 40001f0:	d0a6fb17 	ldw	r2,-25620(gp)
 40001f4:	10000726 	beq	r2,zero,4000214 <alt_instruction_exception_entry+0x44>
     * Call handler. Its return value indicates whether the exception-causing
     * instruction should be re-issued. The code that called us,
     * alt_eceptions_entry.S, will look at this value and adjust the ea
     * register as necessary
     */
    return alt_instruction_exception_handler(cause, exception_pc, badaddr);
 40001f8:	d0a6fb17 	ldw	r2,-25620(gp)
 40001fc:	e0fffd17 	ldw	r3,-12(fp)
 4000200:	e1bffe17 	ldw	r6,-8(fp)
 4000204:	e17fff17 	ldw	r5,-4(fp)
 4000208:	1809883a 	mov	r4,r3
 400020c:	103ee83a 	callr	r2
 4000210:	00000206 	br	400021c <alt_instruction_exception_entry+0x4c>
   *    (a peripheral which negates its interrupt output before its
   *    interrupt handler has been executed will cause spurious interrupts)
   */
  else {
#ifdef NIOS2_HAS_DEBUG_STUB
    NIOS2_BREAK();
 4000214:	003da03a 	break	0
      ;
#endif /* NIOS2_HAS_DEBUG_STUB */
  }

  /* We should not get here. Remove compiler warning. */
  return NIOS2_EXCEPTION_RETURN_REISSUE_INST;
 4000218:	0005883a 	mov	r2,zero
}
 400021c:	e037883a 	mov	sp,fp
 4000220:	dfc00117 	ldw	ra,4(sp)
 4000224:	df000017 	ldw	fp,0(sp)
 4000228:	dec00204 	addi	sp,sp,8
 400022c:	f800283a 	ret

Disassembly of section .text:

08010000 <_start>:

    /*
     * Now that the caches are initialized, set up the stack pointer and global pointer.
     * The values provided by the linker are assumed to be correctly aligned.
     */
    movhi sp, %hi(__alt_stack_pointer)
 8010000:	06c20074 	movhi	sp,2049
    ori sp, sp, %lo(__alt_stack_pointer)
 8010004:	defe8014 	ori	sp,sp,64000
    movhi gp, %hi(_gp)
 8010008:	068200b4 	movhi	gp,2050
    ori gp, gp, %lo(_gp)
 801000c:	d6940214 	ori	gp,gp,20488
 */
#ifndef ALT_SIM_OPTIMIZE
    /* Log that the BSS is about to be cleared. */
    ALT_LOG_PUTS(alt_log_msg_bss)

    movhi r2, %hi(__bss_start)
 8010010:	00820074 	movhi	r2,2049
    ori r2, r2, %lo(__bss_start)
 8010014:	10bae614 	ori	r2,r2,60312

    movhi r3, %hi(__bss_end)
 8010018:	00c20074 	movhi	r3,2049
    ori r3, r3, %lo(__bss_end)
 801001c:	18fca214 	ori	r3,r3,62088

    beq r2, r3, 1f
 8010020:	10c00326 	beq	r2,r3,8010030 <_start+0x30>

0:
    stw zero, (r2)
 8010024:	10000015 	stw	zero,0(r2)
    addi r2, r2, 4
 8010028:	10800104 	addi	r2,r2,4
    bltu r2, r3, 0b
 801002c:	10fffd36 	bltu	r2,r3,8010024 <_gp+0xfffeb01c>
     * section aren't defined until alt_load() has been called).
     */
    mov   et, zero
#endif

    call alt_load
 8010030:	80140180 	call	8014018 <alt_load>

    /* Log that alt_main is about to be called. */
    ALT_LOG_PUTS(alt_log_msg_alt_main)

    /* Call the C entry point. It should never return. */
    call alt_main
 8010034:	80141b40 	call	80141b4 <alt_main>

08010038 <alt_after_alt_main>:

    /* Wait in infinite loop in case alt_main does return. */
alt_after_alt_main:
    br alt_after_alt_main
 8010038:	003fff06 	br	8010038 <_gp+0xfffeb030>

0801003c <printImage>:
#define BUSY (0x0000)
#define READY (0x0001)
#define CONTINUE (0x0002)
#define DONE (0x0003)

void printImage(unsigned char image[BYTES_PER_IMAGE], int size) {
 801003c:	defff804 	addi	sp,sp,-32
 8010040:	dfc00715 	stw	ra,28(sp)
 8010044:	df000615 	stw	fp,24(sp)
 8010048:	df000604 	addi	fp,sp,24
 801004c:	e13ffe15 	stw	r4,-8(fp)
 8010050:	e17fff15 	stw	r5,-4(fp)
    alt_printf("Printing: \n");
 8010054:	010200b4 	movhi	r4,2050
 8010058:	212bc404 	addi	r4,r4,-20720
 801005c:	80144ec0 	call	80144ec <alt_printf>
    for(int i = 0; i < size; i++) {
 8010060:	e03ffa15 	stw	zero,-24(fp)
 8010064:	00001206 	br	80100b0 <printImage+0x74>
        int value = (int)image[i];
 8010068:	e0bffa17 	ldw	r2,-24(fp)
 801006c:	e0fffe17 	ldw	r3,-8(fp)
 8010070:	1885883a 	add	r2,r3,r2
 8010074:	10800003 	ldbu	r2,0(r2)
 8010078:	10803fcc 	andi	r2,r2,255
 801007c:	e0bffb15 	stw	r2,-20(fp)
        char buffer[5]; //String won't be more than 3 characters
        alt_printf("%s ", itoa(value, buffer, 10));
 8010080:	e0bffc04 	addi	r2,fp,-16
 8010084:	01800284 	movi	r6,10
 8010088:	100b883a 	mov	r5,r2
 801008c:	e13ffb17 	ldw	r4,-20(fp)
 8010090:	80118b40 	call	80118b4 <itoa>
 8010094:	100b883a 	mov	r5,r2
 8010098:	010200b4 	movhi	r4,2050
 801009c:	212bc704 	addi	r4,r4,-20708
 80100a0:	80144ec0 	call	80144ec <alt_printf>
#define CONTINUE (0x0002)
#define DONE (0x0003)

void printImage(unsigned char image[BYTES_PER_IMAGE], int size) {
    alt_printf("Printing: \n");
    for(int i = 0; i < size; i++) {
 80100a4:	e0bffa17 	ldw	r2,-24(fp)
 80100a8:	10800044 	addi	r2,r2,1
 80100ac:	e0bffa15 	stw	r2,-24(fp)
 80100b0:	e0fffa17 	ldw	r3,-24(fp)
 80100b4:	e0bfff17 	ldw	r2,-4(fp)
 80100b8:	18bfeb16 	blt	r3,r2,8010068 <_gp+0xfffeb060>
        int value = (int)image[i];
        char buffer[5]; //String won't be more than 3 characters
        alt_printf("%s ", itoa(value, buffer, 10));
    }
    alt_printf("\n");
 80100bc:	010200b4 	movhi	r4,2050
 80100c0:	212bc804 	addi	r4,r4,-20704
 80100c4:	80144ec0 	call	80144ec <alt_printf>
}
 80100c8:	0001883a 	nop
 80100cc:	e037883a 	mov	sp,fp
 80100d0:	dfc00117 	ldw	ra,4(sp)
 80100d4:	df000017 	ldw	fp,0(sp)
 80100d8:	dec00204 	addi	sp,sp,8
 80100dc:	f800283a 	ret

080100e0 <transferImage>:

void transferImage(unsigned char image[BYTES_PER_IMAGE]) {
 80100e0:	defff904 	addi	sp,sp,-28
 80100e4:	df000615 	stw	fp,24(sp)
 80100e8:	df000604 	addi	fp,sp,24
 80100ec:	e13fff15 	stw	r4,-4(fp)
	volatile unsigned char* fpgaControl = FPGA_CONTROL_LINE_ADDRESS;
 80100f0:	00820134 	movhi	r2,2052
 80100f4:	10840004 	addi	r2,r2,4096
 80100f8:	e0bffb15 	stw	r2,-20(fp)
	unsigned char* niosControl = NIOS_CONTROL_LINE_ADDRESS;
 80100fc:	00820134 	movhi	r2,2052
 8010100:	10840404 	addi	r2,r2,4112
 8010104:	e0bffc15 	stw	r2,-16(fp)
	unsigned int* imageRegister = IMAGE_BASE_ADDRESS;
 8010108:	00820134 	movhi	r2,2052
 801010c:	10840804 	addi	r2,r2,4128
 8010110:	e0bffd15 	stw	r2,-12(fp)

	for(int i = 0; i < BYTES_PER_IMAGE; i += BYTES_PER_TRANSFER) {
 8010114:	e03ffa15 	stw	zero,-24(fp)
 8010118:	00001d06 	br	8010190 <transferImage+0xb0>
		*niosControl = CONTINUE; //Continue signal
 801011c:	e0bffc17 	ldw	r2,-16(fp)
 8010120:	00c00084 	movi	r3,2
 8010124:	10c00005 	stb	r3,0(r2)
		while(*fpgaControl != READY) {} //Wait until the fpga is ready
 8010128:	0001883a 	nop
 801012c:	e0bffb17 	ldw	r2,-20(fp)
 8010130:	10800003 	ldbu	r2,0(r2)
 8010134:	10803fcc 	andi	r2,r2,255
 8010138:	10800058 	cmpnei	r2,r2,1
 801013c:	103ffb1e 	bne	r2,zero,801012c <_gp+0xfffeb124>
		unsigned int* pointer = &image[i]; // Point to the first of a group of four bytes
 8010140:	e0bffa17 	ldw	r2,-24(fp)
 8010144:	e0ffff17 	ldw	r3,-4(fp)
 8010148:	1885883a 	add	r2,r3,r2
 801014c:	e0bffe15 	stw	r2,-8(fp)
		*imageRegister = *pointer;
 8010150:	e0bffe17 	ldw	r2,-8(fp)
 8010154:	10c00017 	ldw	r3,0(r2)
 8010158:	e0bffd17 	ldw	r2,-12(fp)
 801015c:	10c00015 	stw	r3,0(r2)
		*niosControl = READY; //Start reading signal
 8010160:	e0bffc17 	ldw	r2,-16(fp)
 8010164:	00c00044 	movi	r3,1
 8010168:	10c00005 	stb	r3,0(r2)
		while(*fpgaControl != CONTINUE) {} //Wait until we start the read
 801016c:	0001883a 	nop
 8010170:	e0bffb17 	ldw	r2,-20(fp)
 8010174:	10800003 	ldbu	r2,0(r2)
 8010178:	10803fcc 	andi	r2,r2,255
 801017c:	10800098 	cmpnei	r2,r2,2
 8010180:	103ffb1e 	bne	r2,zero,8010170 <_gp+0xfffeb168>
void transferImage(unsigned char image[BYTES_PER_IMAGE]) {
	volatile unsigned char* fpgaControl = FPGA_CONTROL_LINE_ADDRESS;
	unsigned char* niosControl = NIOS_CONTROL_LINE_ADDRESS;
	unsigned int* imageRegister = IMAGE_BASE_ADDRESS;

	for(int i = 0; i < BYTES_PER_IMAGE; i += BYTES_PER_TRANSFER) {
 8010184:	e0bffa17 	ldw	r2,-24(fp)
 8010188:	10800104 	addi	r2,r2,4
 801018c:	e0bffa15 	stw	r2,-24(fp)
 8010190:	e0bffa17 	ldw	r2,-24(fp)
 8010194:	1080c410 	cmplti	r2,r2,784
 8010198:	103fe01e 	bne	r2,zero,801011c <_gp+0xfffeb114>
		unsigned int* pointer = &image[i]; // Point to the first of a group of four bytes
		*imageRegister = *pointer;
		*niosControl = READY; //Start reading signal
		while(*fpgaControl != CONTINUE) {} //Wait until we start the read
	}
	*niosControl = DONE;
 801019c:	e0bffc17 	ldw	r2,-16(fp)
 80101a0:	00c000c4 	movi	r3,3
 80101a4:	10c00005 	stb	r3,0(r2)
}
 80101a8:	0001883a 	nop
 80101ac:	e037883a 	mov	sp,fp
 80101b0:	df000017 	ldw	fp,0(sp)
 80101b4:	dec00104 	addi	sp,sp,4
 80101b8:	f800283a 	ret

080101bc <sdTest>:

void sdTest() {
 80101bc:	deff7b04 	addi	sp,sp,-532
 80101c0:	dfc08415 	stw	ra,528(sp)
 80101c4:	df008315 	stw	fp,524(sp)
 80101c8:	df008304 	addi	fp,sp,524
	alt_printf("SD Card Access Test\n");
 80101cc:	010200b4 	movhi	r4,2050
 80101d0:	212bc904 	addi	r4,r4,-20700
 80101d4:	80144ec0 	call	80144ec <alt_printf>

	alt_up_sd_card_dev *sd_card_dev = alt_up_sd_card_open_dev(ALTERA_UP_SD_CARD_AVALON_INTERFACE_0_NAME);
 80101d8:	010200b4 	movhi	r4,2050
 80101dc:	212bcf04 	addi	r4,r4,-20676
 80101e0:	80178b80 	call	80178b8 <alt_up_sd_card_open_dev>
 80101e4:	e0bf7e15 	stw	r2,-520(fp)
	short int sd_fileh;
	char buffer[512] = "WELCOME TO THE INTERFACE!!\r\n\0";
 80101e8:	008200b4 	movhi	r2,2050
 80101ec:	10ac0b04 	addi	r2,r2,-20436
 80101f0:	e0ff7f84 	addi	r3,fp,-514
 80101f4:	1009883a 	mov	r4,r2
 80101f8:	00800784 	movi	r2,30
 80101fc:	100d883a 	mov	r6,r2
 8010200:	200b883a 	mov	r5,r4
 8010204:	1809883a 	mov	r4,r3
 8010208:	80122800 	call	8012280 <memcpy>
 801020c:	e0bf8704 	addi	r2,fp,-484
 8010210:	00c07884 	movi	r3,482
 8010214:	180d883a 	mov	r6,r3
 8010218:	000b883a 	mov	r5,zero
 801021c:	1009883a 	mov	r4,r2
 8010220:	80123c80 	call	80123c8 <memset>
	if(sd_card_dev != 0) {
 8010224:	e0bf7e17 	ldw	r2,-520(fp)
 8010228:	10004326 	beq	r2,zero,8010338 <sdTest+0x17c>
		if(alt_up_sd_card_is_Present()) {
 801022c:	80179740 	call	8017974 <alt_up_sd_card_is_Present>
 8010230:	10003d26 	beq	r2,zero,8010328 <sdTest+0x16c>
			if(alt_up_sd_card_is_FAT16())
 8010234:	8017a380 	call	8017a38 <alt_up_sd_card_is_FAT16>
 8010238:	10000426 	beq	r2,zero,801024c <sdTest+0x90>
				alt_printf("Card is FAT16\n");
 801023c:	010200b4 	movhi	r4,2050
 8010240:	212bda04 	addi	r4,r4,-20632
 8010244:	80144ec0 	call	80144ec <alt_printf>
 8010248:	00000306 	br	8010258 <sdTest+0x9c>
			else
				alt_printf("Card is not FAT16\n");
 801024c:	010200b4 	movhi	r4,2050
 8010250:	212bde04 	addi	r4,r4,-20616
 8010254:	80144ec0 	call	80144ec <alt_printf>

			sd_fileh = alt_up_sd_card_fopen("file.txt", 1);
 8010258:	01400044 	movi	r5,1
 801025c:	010200b4 	movhi	r4,2050
 8010260:	212be304 	addi	r4,r4,-20596
 8010264:	8017f3c0 	call	8017f3c <alt_up_sd_card_fopen>
 8010268:	e0bf7f0d 	sth	r2,-516(fp)

			if (sd_fileh < 0)
 801026c:	e0bf7f0f 	ldh	r2,-516(fp)
 8010270:	1000060e 	bge	r2,zero,801028c <sdTest+0xd0>
				alt_printf("Problem creating file. Error %i", sd_fileh);
 8010274:	e0bf7f0f 	ldh	r2,-516(fp)
 8010278:	100b883a 	mov	r5,r2
 801027c:	010200b4 	movhi	r4,2050
 8010280:	212be604 	addi	r4,r4,-20584
 8010284:	80144ec0 	call	80144ec <alt_printf>
			alt_printf("Card not present!\n");
		}
	} else {
		alt_printf("alt_up_sd_card_dev is 0\n");
	}
}
 8010288:	00002e06 	br	8010344 <sdTest+0x188>
			sd_fileh = alt_up_sd_card_fopen("file.txt", 1);

			if (sd_fileh < 0)
				alt_printf("Problem creating file. Error %i", sd_fileh);
			else {
				alt_printf("SD Accessed Successfully, writing data...");
 801028c:	010200b4 	movhi	r4,2050
 8010290:	212bee04 	addi	r4,r4,-20552
 8010294:	80144ec0 	call	80144ec <alt_printf>
				int index = 0;
 8010298:	e03f7d15 	stw	zero,-524(fp)
				while (buffer[index] != '\0') {
 801029c:	00000d06 	br	80102d4 <sdTest+0x118>
					alt_up_sd_card_write(sd_fileh, buffer[index]);
 80102a0:	e13f7f0f 	ldh	r4,-516(fp)
 80102a4:	e0ff7f84 	addi	r3,fp,-514
 80102a8:	e0bf7d17 	ldw	r2,-524(fp)
 80102ac:	1885883a 	add	r2,r3,r2
 80102b0:	10800003 	ldbu	r2,0(r2)
 80102b4:	10803fcc 	andi	r2,r2,255
 80102b8:	1080201c 	xori	r2,r2,128
 80102bc:	10bfe004 	addi	r2,r2,-128
 80102c0:	100b883a 	mov	r5,r2
 80102c4:	80187580 	call	8018758 <alt_up_sd_card_write>
					index = index + 1;
 80102c8:	e0bf7d17 	ldw	r2,-524(fp)
 80102cc:	10800044 	addi	r2,r2,1
 80102d0:	e0bf7d15 	stw	r2,-524(fp)
			if (sd_fileh < 0)
				alt_printf("Problem creating file. Error %i", sd_fileh);
			else {
				alt_printf("SD Accessed Successfully, writing data...");
				int index = 0;
				while (buffer[index] != '\0') {
 80102d4:	e0ff7f84 	addi	r3,fp,-514
 80102d8:	e0bf7d17 	ldw	r2,-524(fp)
 80102dc:	1885883a 	add	r2,r3,r2
 80102e0:	10800003 	ldbu	r2,0(r2)
 80102e4:	10803fcc 	andi	r2,r2,255
 80102e8:	1080201c 	xori	r2,r2,128
 80102ec:	10bfe004 	addi	r2,r2,-128
 80102f0:	103feb1e 	bne	r2,zero,80102a0 <_gp+0xfffeb298>
					alt_up_sd_card_write(sd_fileh, buffer[index]);
					index = index + 1;
				}
				alt_printf("Done!\n");
 80102f4:	010200b4 	movhi	r4,2050
 80102f8:	212bf904 	addi	r4,r4,-20508
 80102fc:	80144ec0 	call	80144ec <alt_printf>

				alt_printf("Closing File...");
 8010300:	010200b4 	movhi	r4,2050
 8010304:	212bfb04 	addi	r4,r4,-20500
 8010308:	80144ec0 	call	80144ec <alt_printf>
				alt_up_sd_card_fclose(sd_fileh);
 801030c:	e0bf7f0f 	ldh	r2,-516(fp)
 8010310:	1009883a 	mov	r4,r2
 8010314:	8018da40 	call	8018da4 <alt_up_sd_card_fclose>
				alt_printf("Done!\n");
 8010318:	010200b4 	movhi	r4,2050
 801031c:	212bf904 	addi	r4,r4,-20508
 8010320:	80144ec0 	call	80144ec <alt_printf>
			alt_printf("Card not present!\n");
		}
	} else {
		alt_printf("alt_up_sd_card_dev is 0\n");
	}
}
 8010324:	00000706 	br	8010344 <sdTest+0x188>
				alt_printf("Closing File...");
				alt_up_sd_card_fclose(sd_fileh);
				alt_printf("Done!\n");
			}
		} else {
			alt_printf("Card not present!\n");
 8010328:	010200b4 	movhi	r4,2050
 801032c:	212bff04 	addi	r4,r4,-20484
 8010330:	80144ec0 	call	80144ec <alt_printf>
		}
	} else {
		alt_printf("alt_up_sd_card_dev is 0\n");
	}
}
 8010334:	00000306 	br	8010344 <sdTest+0x188>
			}
		} else {
			alt_printf("Card not present!\n");
		}
	} else {
		alt_printf("alt_up_sd_card_dev is 0\n");
 8010338:	010200b4 	movhi	r4,2050
 801033c:	212c0404 	addi	r4,r4,-20464
 8010340:	80144ec0 	call	80144ec <alt_printf>
	}
}
 8010344:	0001883a 	nop
 8010348:	e037883a 	mov	sp,fp
 801034c:	dfc00117 	ldw	ra,4(sp)
 8010350:	df000017 	ldw	fp,0(sp)
 8010354:	dec00204 	addi	sp,sp,8
 8010358:	f800283a 	ret

0801035c <main>:


int main()
{
 801035c:	deff3204 	addi	sp,sp,-824
 8010360:	dfc0cd15 	stw	ra,820(sp)
 8010364:	df00cc15 	stw	fp,816(sp)
 8010368:	dc00cb15 	stw	r16,812(sp)
 801036c:	df00cc04 	addi	fp,sp,816
	sdTest();
 8010370:	80101bc0 	call	80101bc <sdTest>
	alt_printf("First Starting...\n");
 8010374:	010200b4 	movhi	r4,2050
 8010378:	212c8b04 	addi	r4,r4,-19924
 801037c:	80144ec0 	call	80144ec <alt_printf>
	FILE* fp_ascii = NULL;
 8010380:	e03f3715 	stw	zero,-804(fp)
	fp_ascii = fopen ("/mnt/host/test.txt", "r");
 8010384:	014200b4 	movhi	r5,2050
 8010388:	296c9004 	addi	r5,r5,-19904
 801038c:	010200b4 	movhi	r4,2050
 8010390:	212c9104 	addi	r4,r4,-19900
 8010394:	8010d900 	call	8010d90 <fopen>
 8010398:	e0bf3715 	stw	r2,-804(fp)
	if (fp_ascii == NULL)
 801039c:	e0bf3717 	ldw	r2,-804(fp)
 80103a0:	1000051e 	bne	r2,zero,80103b8 <main+0x5c>
	{
	 alt_printf ("Cannot open file for reading\n");
 80103a4:	010200b4 	movhi	r4,2050
 80103a8:	212c9604 	addi	r4,r4,-19880
 80103ac:	80144ec0 	call	80144ec <alt_printf>
	 exit(1);
 80103b0:	01000044 	movi	r4,1
 80103b4:	80105080 	call	8010508 <exit>
	}
	char* line;
	size_t lineSize;
	ssize_t lineLength;
	unsigned char image[BYTES_PER_IMAGE];
	int pixelPos = 0;
 80103b8:	e03f3415 	stw	zero,-816(fp)
	int imageCount = 0;
 80103bc:	e03f3515 	stw	zero,-812(fp)
	while((lineLength = __getline(&line, &lineSize, fp_ascii)) != -1) {
 80103c0:	00003106 	br	8010488 <main+0x12c>
		char *pch;
		pch = strtok(line, " ");
 80103c4:	e0bf3917 	ldw	r2,-796(fp)
 80103c8:	014200b4 	movhi	r5,2050
 80103cc:	296c9e04 	addi	r5,r5,-19848
 80103d0:	1009883a 	mov	r4,r2
 80103d4:	80128d00 	call	80128d0 <strtok>
 80103d8:	e0bf3615 	stw	r2,-808(fp)
		image[pixelPos++] = (unsigned char)atoi(pch);
 80103dc:	e43f3417 	ldw	r16,-816(fp)
 80103e0:	80800044 	addi	r2,r16,1
 80103e4:	e0bf3415 	stw	r2,-816(fp)
 80103e8:	e13f3617 	ldw	r4,-808(fp)
 80103ec:	80104f00 	call	80104f0 <atoi>
 80103f0:	1007883a 	mov	r3,r2
 80103f4:	e0bf3b04 	addi	r2,fp,-788
 80103f8:	1405883a 	add	r2,r2,r16
 80103fc:	10c00005 	stb	r3,0(r2)
		while (pch != NULL && pixelPos < BYTES_PER_IMAGE) {
 8010400:	00001006 	br	8010444 <main+0xe8>
			pch = strtok(NULL, " ");
 8010404:	014200b4 	movhi	r5,2050
 8010408:	296c9e04 	addi	r5,r5,-19848
 801040c:	0009883a 	mov	r4,zero
 8010410:	80128d00 	call	80128d0 <strtok>
 8010414:	e0bf3615 	stw	r2,-808(fp)
			if(pch != NULL) {
 8010418:	e0bf3617 	ldw	r2,-808(fp)
 801041c:	10000926 	beq	r2,zero,8010444 <main+0xe8>
				image[pixelPos++] = (unsigned char) atoi(pch);
 8010420:	e43f3417 	ldw	r16,-816(fp)
 8010424:	80800044 	addi	r2,r16,1
 8010428:	e0bf3415 	stw	r2,-816(fp)
 801042c:	e13f3617 	ldw	r4,-808(fp)
 8010430:	80104f00 	call	80104f0 <atoi>
 8010434:	1007883a 	mov	r3,r2
 8010438:	e0bf3b04 	addi	r2,fp,-788
 801043c:	1405883a 	add	r2,r2,r16
 8010440:	10c00005 	stb	r3,0(r2)
	int imageCount = 0;
	while((lineLength = __getline(&line, &lineSize, fp_ascii)) != -1) {
		char *pch;
		pch = strtok(line, " ");
		image[pixelPos++] = (unsigned char)atoi(pch);
		while (pch != NULL && pixelPos < BYTES_PER_IMAGE) {
 8010444:	e0bf3617 	ldw	r2,-808(fp)
 8010448:	10000326 	beq	r2,zero,8010458 <main+0xfc>
 801044c:	e0bf3417 	ldw	r2,-816(fp)
 8010450:	1080c410 	cmplti	r2,r2,784
 8010454:	103feb1e 	bne	r2,zero,8010404 <_gp+0xfffeb3fc>
			pch = strtok(NULL, " ");
			if(pch != NULL) {
				image[pixelPos++] = (unsigned char) atoi(pch);
			}
		}
		if(pixelPos != BYTES_PER_IMAGE) {
 8010458:	e0bf3417 	ldw	r2,-816(fp)
 801045c:	1080c420 	cmpeqi	r2,r2,784
 8010460:	1000021e 	bne	r2,zero,801046c <main+0x110>
			return 21; //Have it return an error
 8010464:	00800544 	movi	r2,21
 8010468:	00001b06 	br	80104d8 <main+0x17c>
		}
		//printImage(image, BYTES_PER_IMAGE);
		transferImage(image);
 801046c:	e0bf3b04 	addi	r2,fp,-788
 8010470:	1009883a 	mov	r4,r2
 8010474:	80100e00 	call	80100e0 <transferImage>
		pixelPos = 0;
 8010478:	e03f3415 	stw	zero,-816(fp)
		imageCount++;
 801047c:	e0bf3517 	ldw	r2,-812(fp)
 8010480:	10800044 	addi	r2,r2,1
 8010484:	e0bf3515 	stw	r2,-812(fp)
	size_t lineSize;
	ssize_t lineLength;
	unsigned char image[BYTES_PER_IMAGE];
	int pixelPos = 0;
	int imageCount = 0;
	while((lineLength = __getline(&line, &lineSize, fp_ascii)) != -1) {
 8010488:	e0ff3a04 	addi	r3,fp,-792
 801048c:	e0bf3904 	addi	r2,fp,-796
 8010490:	e1bf3717 	ldw	r6,-804(fp)
 8010494:	180b883a 	mov	r5,r3
 8010498:	1009883a 	mov	r4,r2
 801049c:	80118400 	call	8011840 <__getline>
 80104a0:	e0bf3815 	stw	r2,-800(fp)
 80104a4:	e0bf3817 	ldw	r2,-800(fp)
 80104a8:	10bfffd8 	cmpnei	r2,r2,-1
 80104ac:	103fc51e 	bne	r2,zero,80103c4 <_gp+0xfffeb3bc>
		//printImage(image, BYTES_PER_IMAGE);
		transferImage(image);
		pixelPos = 0;
		imageCount++;
	}
	alt_printf("Number of images: %d", imageCount);
 80104b0:	e17f3517 	ldw	r5,-812(fp)
 80104b4:	010200b4 	movhi	r4,2050
 80104b8:	212c9f04 	addi	r4,r4,-19844
 80104bc:	80144ec0 	call	80144ec <alt_printf>
	fclose(fp_ascii);
 80104c0:	e13f3717 	ldw	r4,-804(fp)
 80104c4:	80106300 	call	8010630 <fclose>
	alt_printf("Done!");
 80104c8:	010200b4 	movhi	r4,2050
 80104cc:	212ca504 	addi	r4,r4,-19820
 80104d0:	80144ec0 	call	80144ec <alt_printf>
	while(1){}
 80104d4:	003fff06 	br	80104d4 <_gp+0xfffeb4cc>

}
 80104d8:	e6ffff04 	addi	sp,fp,-4
 80104dc:	dfc00217 	ldw	ra,8(sp)
 80104e0:	df000117 	ldw	fp,4(sp)
 80104e4:	dc000017 	ldw	r16,0(sp)
 80104e8:	dec00304 	addi	sp,sp,12
 80104ec:	f800283a 	ret

080104f0 <atoi>:
 80104f0:	01800284 	movi	r6,10
 80104f4:	000b883a 	mov	r5,zero
 80104f8:	8012be41 	jmpi	8012be4 <strtol>

080104fc <_atoi_r>:
 80104fc:	01c00284 	movi	r7,10
 8010500:	000d883a 	mov	r6,zero
 8010504:	801298c1 	jmpi	801298c <_strtol_r>

08010508 <exit>:
 8010508:	defffe04 	addi	sp,sp,-8
 801050c:	000b883a 	mov	r5,zero
 8010510:	dc000015 	stw	r16,0(sp)
 8010514:	dfc00115 	stw	ra,4(sp)
 8010518:	2021883a 	mov	r16,r4
 801051c:	8012e100 	call	8012e10 <__call_exitprocs>
 8010520:	008200b4 	movhi	r2,2050
 8010524:	10b40204 	addi	r2,r2,-12280
 8010528:	11000017 	ldw	r4,0(r2)
 801052c:	20800f17 	ldw	r2,60(r4)
 8010530:	10000126 	beq	r2,zero,8010538 <exit+0x30>
 8010534:	103ee83a 	callr	r2
 8010538:	8009883a 	mov	r4,r16
 801053c:	8013da00 	call	8013da0 <_exit>

08010540 <_fclose_r>:
 8010540:	28003926 	beq	r5,zero,8010628 <_fclose_r+0xe8>
 8010544:	defffc04 	addi	sp,sp,-16
 8010548:	dc400115 	stw	r17,4(sp)
 801054c:	dc000015 	stw	r16,0(sp)
 8010550:	dfc00315 	stw	ra,12(sp)
 8010554:	dc800215 	stw	r18,8(sp)
 8010558:	2023883a 	mov	r17,r4
 801055c:	2821883a 	mov	r16,r5
 8010560:	20000226 	beq	r4,zero,801056c <_fclose_r+0x2c>
 8010564:	20800e17 	ldw	r2,56(r4)
 8010568:	10002726 	beq	r2,zero,8010608 <_fclose_r+0xc8>
 801056c:	8080030f 	ldh	r2,12(r16)
 8010570:	1000071e 	bne	r2,zero,8010590 <_fclose_r+0x50>
 8010574:	0005883a 	mov	r2,zero
 8010578:	dfc00317 	ldw	ra,12(sp)
 801057c:	dc800217 	ldw	r18,8(sp)
 8010580:	dc400117 	ldw	r17,4(sp)
 8010584:	dc000017 	ldw	r16,0(sp)
 8010588:	dec00404 	addi	sp,sp,16
 801058c:	f800283a 	ret
 8010590:	800b883a 	mov	r5,r16
 8010594:	8809883a 	mov	r4,r17
 8010598:	80106440 	call	8010644 <__sflush_r>
 801059c:	1025883a 	mov	r18,r2
 80105a0:	80800b17 	ldw	r2,44(r16)
 80105a4:	10000426 	beq	r2,zero,80105b8 <_fclose_r+0x78>
 80105a8:	81400717 	ldw	r5,28(r16)
 80105ac:	8809883a 	mov	r4,r17
 80105b0:	103ee83a 	callr	r2
 80105b4:	10001616 	blt	r2,zero,8010610 <_fclose_r+0xd0>
 80105b8:	8080030b 	ldhu	r2,12(r16)
 80105bc:	1080200c 	andi	r2,r2,128
 80105c0:	1000151e 	bne	r2,zero,8010618 <_fclose_r+0xd8>
 80105c4:	81400c17 	ldw	r5,48(r16)
 80105c8:	28000526 	beq	r5,zero,80105e0 <_fclose_r+0xa0>
 80105cc:	80801004 	addi	r2,r16,64
 80105d0:	28800226 	beq	r5,r2,80105dc <_fclose_r+0x9c>
 80105d4:	8809883a 	mov	r4,r17
 80105d8:	8010ecc0 	call	8010ecc <_free_r>
 80105dc:	80000c15 	stw	zero,48(r16)
 80105e0:	81401117 	ldw	r5,68(r16)
 80105e4:	28000326 	beq	r5,zero,80105f4 <_fclose_r+0xb4>
 80105e8:	8809883a 	mov	r4,r17
 80105ec:	8010ecc0 	call	8010ecc <_free_r>
 80105f0:	80001115 	stw	zero,68(r16)
 80105f4:	8010c5c0 	call	8010c5c <__sfp_lock_acquire>
 80105f8:	8000030d 	sth	zero,12(r16)
 80105fc:	8010c600 	call	8010c60 <__sfp_lock_release>
 8010600:	9005883a 	mov	r2,r18
 8010604:	003fdc06 	br	8010578 <_gp+0xfffeb570>
 8010608:	8010c4c0 	call	8010c4c <__sinit>
 801060c:	003fd706 	br	801056c <_gp+0xfffeb564>
 8010610:	04bfffc4 	movi	r18,-1
 8010614:	003fe806 	br	80105b8 <_gp+0xfffeb5b0>
 8010618:	81400417 	ldw	r5,16(r16)
 801061c:	8809883a 	mov	r4,r17
 8010620:	8010ecc0 	call	8010ecc <_free_r>
 8010624:	003fe706 	br	80105c4 <_gp+0xfffeb5bc>
 8010628:	0005883a 	mov	r2,zero
 801062c:	f800283a 	ret

08010630 <fclose>:
 8010630:	008200b4 	movhi	r2,2050
 8010634:	10b40304 	addi	r2,r2,-12276
 8010638:	200b883a 	mov	r5,r4
 801063c:	11000017 	ldw	r4,0(r2)
 8010640:	80105401 	jmpi	8010540 <_fclose_r>

08010644 <__sflush_r>:
 8010644:	2880030b 	ldhu	r2,12(r5)
 8010648:	defffb04 	addi	sp,sp,-20
 801064c:	dcc00315 	stw	r19,12(sp)
 8010650:	dc400115 	stw	r17,4(sp)
 8010654:	dfc00415 	stw	ra,16(sp)
 8010658:	dc800215 	stw	r18,8(sp)
 801065c:	dc000015 	stw	r16,0(sp)
 8010660:	10c0020c 	andi	r3,r2,8
 8010664:	2823883a 	mov	r17,r5
 8010668:	2027883a 	mov	r19,r4
 801066c:	1800311e 	bne	r3,zero,8010734 <__sflush_r+0xf0>
 8010670:	28c00117 	ldw	r3,4(r5)
 8010674:	10820014 	ori	r2,r2,2048
 8010678:	2880030d 	sth	r2,12(r5)
 801067c:	00c04b0e 	bge	zero,r3,80107ac <__sflush_r+0x168>
 8010680:	8a000a17 	ldw	r8,40(r17)
 8010684:	40002326 	beq	r8,zero,8010714 <__sflush_r+0xd0>
 8010688:	9c000017 	ldw	r16,0(r19)
 801068c:	10c4000c 	andi	r3,r2,4096
 8010690:	98000015 	stw	zero,0(r19)
 8010694:	18004826 	beq	r3,zero,80107b8 <__sflush_r+0x174>
 8010698:	89801417 	ldw	r6,80(r17)
 801069c:	10c0010c 	andi	r3,r2,4
 80106a0:	18000626 	beq	r3,zero,80106bc <__sflush_r+0x78>
 80106a4:	88c00117 	ldw	r3,4(r17)
 80106a8:	88800c17 	ldw	r2,48(r17)
 80106ac:	30cdc83a 	sub	r6,r6,r3
 80106b0:	10000226 	beq	r2,zero,80106bc <__sflush_r+0x78>
 80106b4:	88800f17 	ldw	r2,60(r17)
 80106b8:	308dc83a 	sub	r6,r6,r2
 80106bc:	89400717 	ldw	r5,28(r17)
 80106c0:	000f883a 	mov	r7,zero
 80106c4:	9809883a 	mov	r4,r19
 80106c8:	403ee83a 	callr	r8
 80106cc:	00ffffc4 	movi	r3,-1
 80106d0:	10c04426 	beq	r2,r3,80107e4 <__sflush_r+0x1a0>
 80106d4:	88c0030b 	ldhu	r3,12(r17)
 80106d8:	89000417 	ldw	r4,16(r17)
 80106dc:	88000115 	stw	zero,4(r17)
 80106e0:	197dffcc 	andi	r5,r3,63487
 80106e4:	8940030d 	sth	r5,12(r17)
 80106e8:	89000015 	stw	r4,0(r17)
 80106ec:	18c4000c 	andi	r3,r3,4096
 80106f0:	18002c1e 	bne	r3,zero,80107a4 <__sflush_r+0x160>
 80106f4:	89400c17 	ldw	r5,48(r17)
 80106f8:	9c000015 	stw	r16,0(r19)
 80106fc:	28000526 	beq	r5,zero,8010714 <__sflush_r+0xd0>
 8010700:	88801004 	addi	r2,r17,64
 8010704:	28800226 	beq	r5,r2,8010710 <__sflush_r+0xcc>
 8010708:	9809883a 	mov	r4,r19
 801070c:	8010ecc0 	call	8010ecc <_free_r>
 8010710:	88000c15 	stw	zero,48(r17)
 8010714:	0005883a 	mov	r2,zero
 8010718:	dfc00417 	ldw	ra,16(sp)
 801071c:	dcc00317 	ldw	r19,12(sp)
 8010720:	dc800217 	ldw	r18,8(sp)
 8010724:	dc400117 	ldw	r17,4(sp)
 8010728:	dc000017 	ldw	r16,0(sp)
 801072c:	dec00504 	addi	sp,sp,20
 8010730:	f800283a 	ret
 8010734:	2c800417 	ldw	r18,16(r5)
 8010738:	903ff626 	beq	r18,zero,8010714 <_gp+0xfffeb70c>
 801073c:	2c000017 	ldw	r16,0(r5)
 8010740:	108000cc 	andi	r2,r2,3
 8010744:	2c800015 	stw	r18,0(r5)
 8010748:	84a1c83a 	sub	r16,r16,r18
 801074c:	1000131e 	bne	r2,zero,801079c <__sflush_r+0x158>
 8010750:	28800517 	ldw	r2,20(r5)
 8010754:	88800215 	stw	r2,8(r17)
 8010758:	04000316 	blt	zero,r16,8010768 <__sflush_r+0x124>
 801075c:	003fed06 	br	8010714 <_gp+0xfffeb70c>
 8010760:	90a5883a 	add	r18,r18,r2
 8010764:	043feb0e 	bge	zero,r16,8010714 <_gp+0xfffeb70c>
 8010768:	88800917 	ldw	r2,36(r17)
 801076c:	89400717 	ldw	r5,28(r17)
 8010770:	800f883a 	mov	r7,r16
 8010774:	900d883a 	mov	r6,r18
 8010778:	9809883a 	mov	r4,r19
 801077c:	103ee83a 	callr	r2
 8010780:	80a1c83a 	sub	r16,r16,r2
 8010784:	00bff616 	blt	zero,r2,8010760 <_gp+0xfffeb758>
 8010788:	88c0030b 	ldhu	r3,12(r17)
 801078c:	00bfffc4 	movi	r2,-1
 8010790:	18c01014 	ori	r3,r3,64
 8010794:	88c0030d 	sth	r3,12(r17)
 8010798:	003fdf06 	br	8010718 <_gp+0xfffeb710>
 801079c:	0005883a 	mov	r2,zero
 80107a0:	003fec06 	br	8010754 <_gp+0xfffeb74c>
 80107a4:	88801415 	stw	r2,80(r17)
 80107a8:	003fd206 	br	80106f4 <_gp+0xfffeb6ec>
 80107ac:	28c00f17 	ldw	r3,60(r5)
 80107b0:	00ffb316 	blt	zero,r3,8010680 <_gp+0xfffeb678>
 80107b4:	003fd706 	br	8010714 <_gp+0xfffeb70c>
 80107b8:	89400717 	ldw	r5,28(r17)
 80107bc:	000d883a 	mov	r6,zero
 80107c0:	01c00044 	movi	r7,1
 80107c4:	9809883a 	mov	r4,r19
 80107c8:	403ee83a 	callr	r8
 80107cc:	100d883a 	mov	r6,r2
 80107d0:	00bfffc4 	movi	r2,-1
 80107d4:	30801426 	beq	r6,r2,8010828 <__sflush_r+0x1e4>
 80107d8:	8880030b 	ldhu	r2,12(r17)
 80107dc:	8a000a17 	ldw	r8,40(r17)
 80107e0:	003fae06 	br	801069c <_gp+0xfffeb694>
 80107e4:	98c00017 	ldw	r3,0(r19)
 80107e8:	183fba26 	beq	r3,zero,80106d4 <_gp+0xfffeb6cc>
 80107ec:	01000744 	movi	r4,29
 80107f0:	19000626 	beq	r3,r4,801080c <__sflush_r+0x1c8>
 80107f4:	01000584 	movi	r4,22
 80107f8:	19000426 	beq	r3,r4,801080c <__sflush_r+0x1c8>
 80107fc:	88c0030b 	ldhu	r3,12(r17)
 8010800:	18c01014 	ori	r3,r3,64
 8010804:	88c0030d 	sth	r3,12(r17)
 8010808:	003fc306 	br	8010718 <_gp+0xfffeb710>
 801080c:	8880030b 	ldhu	r2,12(r17)
 8010810:	88c00417 	ldw	r3,16(r17)
 8010814:	88000115 	stw	zero,4(r17)
 8010818:	10bdffcc 	andi	r2,r2,63487
 801081c:	8880030d 	sth	r2,12(r17)
 8010820:	88c00015 	stw	r3,0(r17)
 8010824:	003fb306 	br	80106f4 <_gp+0xfffeb6ec>
 8010828:	98800017 	ldw	r2,0(r19)
 801082c:	103fea26 	beq	r2,zero,80107d8 <_gp+0xfffeb7d0>
 8010830:	00c00744 	movi	r3,29
 8010834:	10c00226 	beq	r2,r3,8010840 <__sflush_r+0x1fc>
 8010838:	00c00584 	movi	r3,22
 801083c:	10c0031e 	bne	r2,r3,801084c <__sflush_r+0x208>
 8010840:	9c000015 	stw	r16,0(r19)
 8010844:	0005883a 	mov	r2,zero
 8010848:	003fb306 	br	8010718 <_gp+0xfffeb710>
 801084c:	88c0030b 	ldhu	r3,12(r17)
 8010850:	3005883a 	mov	r2,r6
 8010854:	18c01014 	ori	r3,r3,64
 8010858:	88c0030d 	sth	r3,12(r17)
 801085c:	003fae06 	br	8010718 <_gp+0xfffeb710>

08010860 <_fflush_r>:
 8010860:	defffd04 	addi	sp,sp,-12
 8010864:	dc000115 	stw	r16,4(sp)
 8010868:	dfc00215 	stw	ra,8(sp)
 801086c:	2021883a 	mov	r16,r4
 8010870:	20000226 	beq	r4,zero,801087c <_fflush_r+0x1c>
 8010874:	20800e17 	ldw	r2,56(r4)
 8010878:	10000c26 	beq	r2,zero,80108ac <_fflush_r+0x4c>
 801087c:	2880030f 	ldh	r2,12(r5)
 8010880:	1000051e 	bne	r2,zero,8010898 <_fflush_r+0x38>
 8010884:	0005883a 	mov	r2,zero
 8010888:	dfc00217 	ldw	ra,8(sp)
 801088c:	dc000117 	ldw	r16,4(sp)
 8010890:	dec00304 	addi	sp,sp,12
 8010894:	f800283a 	ret
 8010898:	8009883a 	mov	r4,r16
 801089c:	dfc00217 	ldw	ra,8(sp)
 80108a0:	dc000117 	ldw	r16,4(sp)
 80108a4:	dec00304 	addi	sp,sp,12
 80108a8:	80106441 	jmpi	8010644 <__sflush_r>
 80108ac:	d9400015 	stw	r5,0(sp)
 80108b0:	8010c4c0 	call	8010c4c <__sinit>
 80108b4:	d9400017 	ldw	r5,0(sp)
 80108b8:	003ff006 	br	801087c <_gp+0xfffeb874>

080108bc <fflush>:
 80108bc:	20000526 	beq	r4,zero,80108d4 <fflush+0x18>
 80108c0:	008200b4 	movhi	r2,2050
 80108c4:	10b40304 	addi	r2,r2,-12276
 80108c8:	200b883a 	mov	r5,r4
 80108cc:	11000017 	ldw	r4,0(r2)
 80108d0:	80108601 	jmpi	8010860 <_fflush_r>
 80108d4:	008200b4 	movhi	r2,2050
 80108d8:	10b40204 	addi	r2,r2,-12280
 80108dc:	11000017 	ldw	r4,0(r2)
 80108e0:	01420074 	movhi	r5,2049
 80108e4:	29421804 	addi	r5,r5,2144
 80108e8:	801177c1 	jmpi	801177c <_fwalk_reent>

080108ec <__fp_unlock>:
 80108ec:	0005883a 	mov	r2,zero
 80108f0:	f800283a 	ret

080108f4 <_cleanup_r>:
 80108f4:	01420074 	movhi	r5,2049
 80108f8:	29415004 	addi	r5,r5,1344
 80108fc:	801177c1 	jmpi	801177c <_fwalk_reent>

08010900 <__sinit.part.1>:
 8010900:	defff704 	addi	sp,sp,-36
 8010904:	00c20074 	movhi	r3,2049
 8010908:	dfc00815 	stw	ra,32(sp)
 801090c:	ddc00715 	stw	r23,28(sp)
 8010910:	dd800615 	stw	r22,24(sp)
 8010914:	dd400515 	stw	r21,20(sp)
 8010918:	dd000415 	stw	r20,16(sp)
 801091c:	dcc00315 	stw	r19,12(sp)
 8010920:	dc800215 	stw	r18,8(sp)
 8010924:	dc400115 	stw	r17,4(sp)
 8010928:	dc000015 	stw	r16,0(sp)
 801092c:	18c23d04 	addi	r3,r3,2292
 8010930:	24000117 	ldw	r16,4(r4)
 8010934:	20c00f15 	stw	r3,60(r4)
 8010938:	2080bb04 	addi	r2,r4,748
 801093c:	00c000c4 	movi	r3,3
 8010940:	20c0b915 	stw	r3,740(r4)
 8010944:	2080ba15 	stw	r2,744(r4)
 8010948:	2000b815 	stw	zero,736(r4)
 801094c:	05c00204 	movi	r23,8
 8010950:	00800104 	movi	r2,4
 8010954:	2025883a 	mov	r18,r4
 8010958:	b80d883a 	mov	r6,r23
 801095c:	81001704 	addi	r4,r16,92
 8010960:	000b883a 	mov	r5,zero
 8010964:	80000015 	stw	zero,0(r16)
 8010968:	80000115 	stw	zero,4(r16)
 801096c:	80000215 	stw	zero,8(r16)
 8010970:	8080030d 	sth	r2,12(r16)
 8010974:	80001915 	stw	zero,100(r16)
 8010978:	8000038d 	sth	zero,14(r16)
 801097c:	80000415 	stw	zero,16(r16)
 8010980:	80000515 	stw	zero,20(r16)
 8010984:	80000615 	stw	zero,24(r16)
 8010988:	80123c80 	call	80123c8 <memset>
 801098c:	05820074 	movhi	r22,2049
 8010990:	94400217 	ldw	r17,8(r18)
 8010994:	05420074 	movhi	r21,2049
 8010998:	05020074 	movhi	r20,2049
 801099c:	04c20074 	movhi	r19,2049
 80109a0:	b589e504 	addi	r22,r22,10132
 80109a4:	ad49fc04 	addi	r21,r21,10224
 80109a8:	a50a1b04 	addi	r20,r20,10348
 80109ac:	9cca3204 	addi	r19,r19,10440
 80109b0:	85800815 	stw	r22,32(r16)
 80109b4:	85400915 	stw	r21,36(r16)
 80109b8:	85000a15 	stw	r20,40(r16)
 80109bc:	84c00b15 	stw	r19,44(r16)
 80109c0:	84000715 	stw	r16,28(r16)
 80109c4:	00800284 	movi	r2,10
 80109c8:	8880030d 	sth	r2,12(r17)
 80109cc:	00800044 	movi	r2,1
 80109d0:	b80d883a 	mov	r6,r23
 80109d4:	89001704 	addi	r4,r17,92
 80109d8:	000b883a 	mov	r5,zero
 80109dc:	88000015 	stw	zero,0(r17)
 80109e0:	88000115 	stw	zero,4(r17)
 80109e4:	88000215 	stw	zero,8(r17)
 80109e8:	88001915 	stw	zero,100(r17)
 80109ec:	8880038d 	sth	r2,14(r17)
 80109f0:	88000415 	stw	zero,16(r17)
 80109f4:	88000515 	stw	zero,20(r17)
 80109f8:	88000615 	stw	zero,24(r17)
 80109fc:	80123c80 	call	80123c8 <memset>
 8010a00:	94000317 	ldw	r16,12(r18)
 8010a04:	00800484 	movi	r2,18
 8010a08:	8c400715 	stw	r17,28(r17)
 8010a0c:	8d800815 	stw	r22,32(r17)
 8010a10:	8d400915 	stw	r21,36(r17)
 8010a14:	8d000a15 	stw	r20,40(r17)
 8010a18:	8cc00b15 	stw	r19,44(r17)
 8010a1c:	8080030d 	sth	r2,12(r16)
 8010a20:	00800084 	movi	r2,2
 8010a24:	80000015 	stw	zero,0(r16)
 8010a28:	80000115 	stw	zero,4(r16)
 8010a2c:	80000215 	stw	zero,8(r16)
 8010a30:	80001915 	stw	zero,100(r16)
 8010a34:	8080038d 	sth	r2,14(r16)
 8010a38:	80000415 	stw	zero,16(r16)
 8010a3c:	80000515 	stw	zero,20(r16)
 8010a40:	80000615 	stw	zero,24(r16)
 8010a44:	b80d883a 	mov	r6,r23
 8010a48:	000b883a 	mov	r5,zero
 8010a4c:	81001704 	addi	r4,r16,92
 8010a50:	80123c80 	call	80123c8 <memset>
 8010a54:	00800044 	movi	r2,1
 8010a58:	84000715 	stw	r16,28(r16)
 8010a5c:	85800815 	stw	r22,32(r16)
 8010a60:	85400915 	stw	r21,36(r16)
 8010a64:	85000a15 	stw	r20,40(r16)
 8010a68:	84c00b15 	stw	r19,44(r16)
 8010a6c:	90800e15 	stw	r2,56(r18)
 8010a70:	dfc00817 	ldw	ra,32(sp)
 8010a74:	ddc00717 	ldw	r23,28(sp)
 8010a78:	dd800617 	ldw	r22,24(sp)
 8010a7c:	dd400517 	ldw	r21,20(sp)
 8010a80:	dd000417 	ldw	r20,16(sp)
 8010a84:	dcc00317 	ldw	r19,12(sp)
 8010a88:	dc800217 	ldw	r18,8(sp)
 8010a8c:	dc400117 	ldw	r17,4(sp)
 8010a90:	dc000017 	ldw	r16,0(sp)
 8010a94:	dec00904 	addi	sp,sp,36
 8010a98:	f800283a 	ret

08010a9c <__fp_lock>:
 8010a9c:	0005883a 	mov	r2,zero
 8010aa0:	f800283a 	ret

08010aa4 <__sfmoreglue>:
 8010aa4:	defffc04 	addi	sp,sp,-16
 8010aa8:	dc800215 	stw	r18,8(sp)
 8010aac:	2825883a 	mov	r18,r5
 8010ab0:	dc000015 	stw	r16,0(sp)
 8010ab4:	01401a04 	movi	r5,104
 8010ab8:	2021883a 	mov	r16,r4
 8010abc:	913fffc4 	addi	r4,r18,-1
 8010ac0:	dfc00315 	stw	ra,12(sp)
 8010ac4:	dc400115 	stw	r17,4(sp)
 8010ac8:	8013c380 	call	8013c38 <__mulsi3>
 8010acc:	8009883a 	mov	r4,r16
 8010ad0:	11401d04 	addi	r5,r2,116
 8010ad4:	1023883a 	mov	r17,r2
 8010ad8:	8011a740 	call	8011a74 <_malloc_r>
 8010adc:	1021883a 	mov	r16,r2
 8010ae0:	10000726 	beq	r2,zero,8010b00 <__sfmoreglue+0x5c>
 8010ae4:	11000304 	addi	r4,r2,12
 8010ae8:	10000015 	stw	zero,0(r2)
 8010aec:	14800115 	stw	r18,4(r2)
 8010af0:	11000215 	stw	r4,8(r2)
 8010af4:	89801a04 	addi	r6,r17,104
 8010af8:	000b883a 	mov	r5,zero
 8010afc:	80123c80 	call	80123c8 <memset>
 8010b00:	8005883a 	mov	r2,r16
 8010b04:	dfc00317 	ldw	ra,12(sp)
 8010b08:	dc800217 	ldw	r18,8(sp)
 8010b0c:	dc400117 	ldw	r17,4(sp)
 8010b10:	dc000017 	ldw	r16,0(sp)
 8010b14:	dec00404 	addi	sp,sp,16
 8010b18:	f800283a 	ret

08010b1c <__sfp>:
 8010b1c:	defffb04 	addi	sp,sp,-20
 8010b20:	dc000015 	stw	r16,0(sp)
 8010b24:	040200b4 	movhi	r16,2050
 8010b28:	84340204 	addi	r16,r16,-12280
 8010b2c:	dcc00315 	stw	r19,12(sp)
 8010b30:	2027883a 	mov	r19,r4
 8010b34:	81000017 	ldw	r4,0(r16)
 8010b38:	dfc00415 	stw	ra,16(sp)
 8010b3c:	dc800215 	stw	r18,8(sp)
 8010b40:	20800e17 	ldw	r2,56(r4)
 8010b44:	dc400115 	stw	r17,4(sp)
 8010b48:	1000021e 	bne	r2,zero,8010b54 <__sfp+0x38>
 8010b4c:	80109000 	call	8010900 <__sinit.part.1>
 8010b50:	81000017 	ldw	r4,0(r16)
 8010b54:	2480b804 	addi	r18,r4,736
 8010b58:	047fffc4 	movi	r17,-1
 8010b5c:	91000117 	ldw	r4,4(r18)
 8010b60:	94000217 	ldw	r16,8(r18)
 8010b64:	213fffc4 	addi	r4,r4,-1
 8010b68:	20000a16 	blt	r4,zero,8010b94 <__sfp+0x78>
 8010b6c:	8080030f 	ldh	r2,12(r16)
 8010b70:	10000c26 	beq	r2,zero,8010ba4 <__sfp+0x88>
 8010b74:	80c01d04 	addi	r3,r16,116
 8010b78:	00000206 	br	8010b84 <__sfp+0x68>
 8010b7c:	18bfe60f 	ldh	r2,-104(r3)
 8010b80:	10000826 	beq	r2,zero,8010ba4 <__sfp+0x88>
 8010b84:	213fffc4 	addi	r4,r4,-1
 8010b88:	1c3ffd04 	addi	r16,r3,-12
 8010b8c:	18c01a04 	addi	r3,r3,104
 8010b90:	247ffa1e 	bne	r4,r17,8010b7c <_gp+0xfffebb74>
 8010b94:	90800017 	ldw	r2,0(r18)
 8010b98:	10001d26 	beq	r2,zero,8010c10 <__sfp+0xf4>
 8010b9c:	1025883a 	mov	r18,r2
 8010ba0:	003fee06 	br	8010b5c <_gp+0xfffebb54>
 8010ba4:	00bfffc4 	movi	r2,-1
 8010ba8:	8080038d 	sth	r2,14(r16)
 8010bac:	00800044 	movi	r2,1
 8010bb0:	8080030d 	sth	r2,12(r16)
 8010bb4:	80001915 	stw	zero,100(r16)
 8010bb8:	80000015 	stw	zero,0(r16)
 8010bbc:	80000215 	stw	zero,8(r16)
 8010bc0:	80000115 	stw	zero,4(r16)
 8010bc4:	80000415 	stw	zero,16(r16)
 8010bc8:	80000515 	stw	zero,20(r16)
 8010bcc:	80000615 	stw	zero,24(r16)
 8010bd0:	01800204 	movi	r6,8
 8010bd4:	000b883a 	mov	r5,zero
 8010bd8:	81001704 	addi	r4,r16,92
 8010bdc:	80123c80 	call	80123c8 <memset>
 8010be0:	8005883a 	mov	r2,r16
 8010be4:	80000c15 	stw	zero,48(r16)
 8010be8:	80000d15 	stw	zero,52(r16)
 8010bec:	80001115 	stw	zero,68(r16)
 8010bf0:	80001215 	stw	zero,72(r16)
 8010bf4:	dfc00417 	ldw	ra,16(sp)
 8010bf8:	dcc00317 	ldw	r19,12(sp)
 8010bfc:	dc800217 	ldw	r18,8(sp)
 8010c00:	dc400117 	ldw	r17,4(sp)
 8010c04:	dc000017 	ldw	r16,0(sp)
 8010c08:	dec00504 	addi	sp,sp,20
 8010c0c:	f800283a 	ret
 8010c10:	01400104 	movi	r5,4
 8010c14:	9809883a 	mov	r4,r19
 8010c18:	8010aa40 	call	8010aa4 <__sfmoreglue>
 8010c1c:	90800015 	stw	r2,0(r18)
 8010c20:	103fde1e 	bne	r2,zero,8010b9c <_gp+0xfffebb94>
 8010c24:	00800304 	movi	r2,12
 8010c28:	98800015 	stw	r2,0(r19)
 8010c2c:	0005883a 	mov	r2,zero
 8010c30:	003ff006 	br	8010bf4 <_gp+0xfffebbec>

08010c34 <_cleanup>:
 8010c34:	008200b4 	movhi	r2,2050
 8010c38:	10b40204 	addi	r2,r2,-12280
 8010c3c:	11000017 	ldw	r4,0(r2)
 8010c40:	01420074 	movhi	r5,2049
 8010c44:	29415004 	addi	r5,r5,1344
 8010c48:	801177c1 	jmpi	801177c <_fwalk_reent>

08010c4c <__sinit>:
 8010c4c:	20800e17 	ldw	r2,56(r4)
 8010c50:	10000126 	beq	r2,zero,8010c58 <__sinit+0xc>
 8010c54:	f800283a 	ret
 8010c58:	80109001 	jmpi	8010900 <__sinit.part.1>

08010c5c <__sfp_lock_acquire>:
 8010c5c:	f800283a 	ret

08010c60 <__sfp_lock_release>:
 8010c60:	f800283a 	ret

08010c64 <__sinit_lock_acquire>:
 8010c64:	f800283a 	ret

08010c68 <__sinit_lock_release>:
 8010c68:	f800283a 	ret

08010c6c <__fp_lock_all>:
 8010c6c:	008200b4 	movhi	r2,2050
 8010c70:	10b40304 	addi	r2,r2,-12276
 8010c74:	11000017 	ldw	r4,0(r2)
 8010c78:	01420074 	movhi	r5,2049
 8010c7c:	2942a704 	addi	r5,r5,2716
 8010c80:	80116b81 	jmpi	80116b8 <_fwalk>

08010c84 <__fp_unlock_all>:
 8010c84:	008200b4 	movhi	r2,2050
 8010c88:	10b40304 	addi	r2,r2,-12276
 8010c8c:	11000017 	ldw	r4,0(r2)
 8010c90:	01420074 	movhi	r5,2049
 8010c94:	29423b04 	addi	r5,r5,2284
 8010c98:	80116b81 	jmpi	80116b8 <_fwalk>

08010c9c <_fopen_r>:
 8010c9c:	defffa04 	addi	sp,sp,-24
 8010ca0:	3005883a 	mov	r2,r6
 8010ca4:	dcc00415 	stw	r19,16(sp)
 8010ca8:	d80d883a 	mov	r6,sp
 8010cac:	2827883a 	mov	r19,r5
 8010cb0:	100b883a 	mov	r5,r2
 8010cb4:	dc800315 	stw	r18,12(sp)
 8010cb8:	dfc00515 	stw	ra,20(sp)
 8010cbc:	dc400215 	stw	r17,8(sp)
 8010cc0:	dc000115 	stw	r16,4(sp)
 8010cc4:	2025883a 	mov	r18,r4
 8010cc8:	8012f900 	call	8012f90 <__sflags>
 8010ccc:	10002726 	beq	r2,zero,8010d6c <_fopen_r+0xd0>
 8010cd0:	9009883a 	mov	r4,r18
 8010cd4:	1023883a 	mov	r17,r2
 8010cd8:	8010b1c0 	call	8010b1c <__sfp>
 8010cdc:	1021883a 	mov	r16,r2
 8010ce0:	10002226 	beq	r2,zero,8010d6c <_fopen_r+0xd0>
 8010ce4:	d9800017 	ldw	r6,0(sp)
 8010ce8:	01c06d84 	movi	r7,438
 8010cec:	980b883a 	mov	r5,r19
 8010cf0:	9009883a 	mov	r4,r18
 8010cf4:	80124f00 	call	80124f0 <_open_r>
 8010cf8:	10001916 	blt	r2,zero,8010d60 <_fopen_r+0xc4>
 8010cfc:	8080038d 	sth	r2,14(r16)
 8010d00:	00820074 	movhi	r2,2049
 8010d04:	1089e504 	addi	r2,r2,10132
 8010d08:	80800815 	stw	r2,32(r16)
 8010d0c:	00820074 	movhi	r2,2049
 8010d10:	1089fc04 	addi	r2,r2,10224
 8010d14:	80800915 	stw	r2,36(r16)
 8010d18:	00820074 	movhi	r2,2049
 8010d1c:	108a1b04 	addi	r2,r2,10348
 8010d20:	80800a15 	stw	r2,40(r16)
 8010d24:	00820074 	movhi	r2,2049
 8010d28:	108a3204 	addi	r2,r2,10440
 8010d2c:	8440030d 	sth	r17,12(r16)
 8010d30:	84000715 	stw	r16,28(r16)
 8010d34:	80800b15 	stw	r2,44(r16)
 8010d38:	8c40400c 	andi	r17,r17,256
 8010d3c:	88000d1e 	bne	r17,zero,8010d74 <_fopen_r+0xd8>
 8010d40:	8005883a 	mov	r2,r16
 8010d44:	dfc00517 	ldw	ra,20(sp)
 8010d48:	dcc00417 	ldw	r19,16(sp)
 8010d4c:	dc800317 	ldw	r18,12(sp)
 8010d50:	dc400217 	ldw	r17,8(sp)
 8010d54:	dc000117 	ldw	r16,4(sp)
 8010d58:	dec00604 	addi	sp,sp,24
 8010d5c:	f800283a 	ret
 8010d60:	8010c5c0 	call	8010c5c <__sfp_lock_acquire>
 8010d64:	8000030d 	sth	zero,12(r16)
 8010d68:	8010c600 	call	8010c60 <__sfp_lock_release>
 8010d6c:	0005883a 	mov	r2,zero
 8010d70:	003ff406 	br	8010d44 <_gp+0xfffebd3c>
 8010d74:	01c00084 	movi	r7,2
 8010d78:	000d883a 	mov	r6,zero
 8010d7c:	800b883a 	mov	r5,r16
 8010d80:	9009883a 	mov	r4,r18
 8010d84:	80111dc0 	call	80111dc <_fseek_r>
 8010d88:	8005883a 	mov	r2,r16
 8010d8c:	003fed06 	br	8010d44 <_gp+0xfffebd3c>

08010d90 <fopen>:
 8010d90:	008200b4 	movhi	r2,2050
 8010d94:	10b40304 	addi	r2,r2,-12276
 8010d98:	280d883a 	mov	r6,r5
 8010d9c:	200b883a 	mov	r5,r4
 8010da0:	11000017 	ldw	r4,0(r2)
 8010da4:	8010c9c1 	jmpi	8010c9c <_fopen_r>

08010da8 <_malloc_trim_r>:
 8010da8:	defffb04 	addi	sp,sp,-20
 8010dac:	dcc00315 	stw	r19,12(sp)
 8010db0:	04c200b4 	movhi	r19,2050
 8010db4:	dc800215 	stw	r18,8(sp)
 8010db8:	dc400115 	stw	r17,4(sp)
 8010dbc:	dc000015 	stw	r16,0(sp)
 8010dc0:	dfc00415 	stw	ra,16(sp)
 8010dc4:	2821883a 	mov	r16,r5
 8010dc8:	9cee6904 	addi	r19,r19,-18012
 8010dcc:	2025883a 	mov	r18,r4
 8010dd0:	80142200 	call	8014220 <__malloc_lock>
 8010dd4:	98800217 	ldw	r2,8(r19)
 8010dd8:	14400117 	ldw	r17,4(r2)
 8010ddc:	00bfff04 	movi	r2,-4
 8010de0:	88a2703a 	and	r17,r17,r2
 8010de4:	8c21c83a 	sub	r16,r17,r16
 8010de8:	8403fbc4 	addi	r16,r16,4079
 8010dec:	8020d33a 	srli	r16,r16,12
 8010df0:	0083ffc4 	movi	r2,4095
 8010df4:	843fffc4 	addi	r16,r16,-1
 8010df8:	8020933a 	slli	r16,r16,12
 8010dfc:	1400060e 	bge	r2,r16,8010e18 <_malloc_trim_r+0x70>
 8010e00:	000b883a 	mov	r5,zero
 8010e04:	9009883a 	mov	r4,r18
 8010e08:	80127400 	call	8012740 <_sbrk_r>
 8010e0c:	98c00217 	ldw	r3,8(r19)
 8010e10:	1c47883a 	add	r3,r3,r17
 8010e14:	10c00a26 	beq	r2,r3,8010e40 <_malloc_trim_r+0x98>
 8010e18:	9009883a 	mov	r4,r18
 8010e1c:	80142440 	call	8014244 <__malloc_unlock>
 8010e20:	0005883a 	mov	r2,zero
 8010e24:	dfc00417 	ldw	ra,16(sp)
 8010e28:	dcc00317 	ldw	r19,12(sp)
 8010e2c:	dc800217 	ldw	r18,8(sp)
 8010e30:	dc400117 	ldw	r17,4(sp)
 8010e34:	dc000017 	ldw	r16,0(sp)
 8010e38:	dec00504 	addi	sp,sp,20
 8010e3c:	f800283a 	ret
 8010e40:	040bc83a 	sub	r5,zero,r16
 8010e44:	9009883a 	mov	r4,r18
 8010e48:	80127400 	call	8012740 <_sbrk_r>
 8010e4c:	00ffffc4 	movi	r3,-1
 8010e50:	10c00d26 	beq	r2,r3,8010e88 <_malloc_trim_r+0xe0>
 8010e54:	00c200b4 	movhi	r3,2050
 8010e58:	18fafe04 	addi	r3,r3,-5128
 8010e5c:	18800017 	ldw	r2,0(r3)
 8010e60:	99000217 	ldw	r4,8(r19)
 8010e64:	8c23c83a 	sub	r17,r17,r16
 8010e68:	8c400054 	ori	r17,r17,1
 8010e6c:	1421c83a 	sub	r16,r2,r16
 8010e70:	24400115 	stw	r17,4(r4)
 8010e74:	9009883a 	mov	r4,r18
 8010e78:	1c000015 	stw	r16,0(r3)
 8010e7c:	80142440 	call	8014244 <__malloc_unlock>
 8010e80:	00800044 	movi	r2,1
 8010e84:	003fe706 	br	8010e24 <_gp+0xfffebe1c>
 8010e88:	000b883a 	mov	r5,zero
 8010e8c:	9009883a 	mov	r4,r18
 8010e90:	80127400 	call	8012740 <_sbrk_r>
 8010e94:	99000217 	ldw	r4,8(r19)
 8010e98:	014003c4 	movi	r5,15
 8010e9c:	1107c83a 	sub	r3,r2,r4
 8010ea0:	28ffdd0e 	bge	r5,r3,8010e18 <_gp+0xfffebe10>
 8010ea4:	014200b4 	movhi	r5,2050
 8010ea8:	29740404 	addi	r5,r5,-12272
 8010eac:	29400017 	ldw	r5,0(r5)
 8010eb0:	18c00054 	ori	r3,r3,1
 8010eb4:	20c00115 	stw	r3,4(r4)
 8010eb8:	00c200b4 	movhi	r3,2050
 8010ebc:	1145c83a 	sub	r2,r2,r5
 8010ec0:	18fafe04 	addi	r3,r3,-5128
 8010ec4:	18800015 	stw	r2,0(r3)
 8010ec8:	003fd306 	br	8010e18 <_gp+0xfffebe10>

08010ecc <_free_r>:
 8010ecc:	28004126 	beq	r5,zero,8010fd4 <_free_r+0x108>
 8010ed0:	defffd04 	addi	sp,sp,-12
 8010ed4:	dc400115 	stw	r17,4(sp)
 8010ed8:	dc000015 	stw	r16,0(sp)
 8010edc:	2023883a 	mov	r17,r4
 8010ee0:	2821883a 	mov	r16,r5
 8010ee4:	dfc00215 	stw	ra,8(sp)
 8010ee8:	80142200 	call	8014220 <__malloc_lock>
 8010eec:	81ffff17 	ldw	r7,-4(r16)
 8010ef0:	00bfff84 	movi	r2,-2
 8010ef4:	010200b4 	movhi	r4,2050
 8010ef8:	81bffe04 	addi	r6,r16,-8
 8010efc:	3884703a 	and	r2,r7,r2
 8010f00:	212e6904 	addi	r4,r4,-18012
 8010f04:	308b883a 	add	r5,r6,r2
 8010f08:	2a400117 	ldw	r9,4(r5)
 8010f0c:	22000217 	ldw	r8,8(r4)
 8010f10:	00ffff04 	movi	r3,-4
 8010f14:	48c6703a 	and	r3,r9,r3
 8010f18:	2a005726 	beq	r5,r8,8011078 <_free_r+0x1ac>
 8010f1c:	28c00115 	stw	r3,4(r5)
 8010f20:	39c0004c 	andi	r7,r7,1
 8010f24:	3800091e 	bne	r7,zero,8010f4c <_free_r+0x80>
 8010f28:	823ffe17 	ldw	r8,-8(r16)
 8010f2c:	22400204 	addi	r9,r4,8
 8010f30:	320dc83a 	sub	r6,r6,r8
 8010f34:	31c00217 	ldw	r7,8(r6)
 8010f38:	1205883a 	add	r2,r2,r8
 8010f3c:	3a406526 	beq	r7,r9,80110d4 <_free_r+0x208>
 8010f40:	32000317 	ldw	r8,12(r6)
 8010f44:	3a000315 	stw	r8,12(r7)
 8010f48:	41c00215 	stw	r7,8(r8)
 8010f4c:	28cf883a 	add	r7,r5,r3
 8010f50:	39c00117 	ldw	r7,4(r7)
 8010f54:	39c0004c 	andi	r7,r7,1
 8010f58:	38003a26 	beq	r7,zero,8011044 <_free_r+0x178>
 8010f5c:	10c00054 	ori	r3,r2,1
 8010f60:	30c00115 	stw	r3,4(r6)
 8010f64:	3087883a 	add	r3,r6,r2
 8010f68:	18800015 	stw	r2,0(r3)
 8010f6c:	00c07fc4 	movi	r3,511
 8010f70:	18801936 	bltu	r3,r2,8010fd8 <_free_r+0x10c>
 8010f74:	1004d0fa 	srli	r2,r2,3
 8010f78:	01c00044 	movi	r7,1
 8010f7c:	21400117 	ldw	r5,4(r4)
 8010f80:	10c00044 	addi	r3,r2,1
 8010f84:	18c7883a 	add	r3,r3,r3
 8010f88:	1005d0ba 	srai	r2,r2,2
 8010f8c:	18c7883a 	add	r3,r3,r3
 8010f90:	18c7883a 	add	r3,r3,r3
 8010f94:	1907883a 	add	r3,r3,r4
 8010f98:	3884983a 	sll	r2,r7,r2
 8010f9c:	19c00017 	ldw	r7,0(r3)
 8010fa0:	1a3ffe04 	addi	r8,r3,-8
 8010fa4:	1144b03a 	or	r2,r2,r5
 8010fa8:	32000315 	stw	r8,12(r6)
 8010fac:	31c00215 	stw	r7,8(r6)
 8010fb0:	20800115 	stw	r2,4(r4)
 8010fb4:	19800015 	stw	r6,0(r3)
 8010fb8:	39800315 	stw	r6,12(r7)
 8010fbc:	8809883a 	mov	r4,r17
 8010fc0:	dfc00217 	ldw	ra,8(sp)
 8010fc4:	dc400117 	ldw	r17,4(sp)
 8010fc8:	dc000017 	ldw	r16,0(sp)
 8010fcc:	dec00304 	addi	sp,sp,12
 8010fd0:	80142441 	jmpi	8014244 <__malloc_unlock>
 8010fd4:	f800283a 	ret
 8010fd8:	100ad27a 	srli	r5,r2,9
 8010fdc:	00c00104 	movi	r3,4
 8010fe0:	19404a36 	bltu	r3,r5,801110c <_free_r+0x240>
 8010fe4:	100ad1ba 	srli	r5,r2,6
 8010fe8:	28c00e44 	addi	r3,r5,57
 8010fec:	18c7883a 	add	r3,r3,r3
 8010ff0:	29400e04 	addi	r5,r5,56
 8010ff4:	18c7883a 	add	r3,r3,r3
 8010ff8:	18c7883a 	add	r3,r3,r3
 8010ffc:	1909883a 	add	r4,r3,r4
 8011000:	20c00017 	ldw	r3,0(r4)
 8011004:	01c200b4 	movhi	r7,2050
 8011008:	213ffe04 	addi	r4,r4,-8
 801100c:	39ee6904 	addi	r7,r7,-18012
 8011010:	20c04426 	beq	r4,r3,8011124 <_free_r+0x258>
 8011014:	01ffff04 	movi	r7,-4
 8011018:	19400117 	ldw	r5,4(r3)
 801101c:	29ca703a 	and	r5,r5,r7
 8011020:	1140022e 	bgeu	r2,r5,801102c <_free_r+0x160>
 8011024:	18c00217 	ldw	r3,8(r3)
 8011028:	20fffb1e 	bne	r4,r3,8011018 <_gp+0xfffec010>
 801102c:	19000317 	ldw	r4,12(r3)
 8011030:	31000315 	stw	r4,12(r6)
 8011034:	30c00215 	stw	r3,8(r6)
 8011038:	21800215 	stw	r6,8(r4)
 801103c:	19800315 	stw	r6,12(r3)
 8011040:	003fde06 	br	8010fbc <_gp+0xfffebfb4>
 8011044:	29c00217 	ldw	r7,8(r5)
 8011048:	10c5883a 	add	r2,r2,r3
 801104c:	00c200b4 	movhi	r3,2050
 8011050:	18ee6b04 	addi	r3,r3,-18004
 8011054:	38c03b26 	beq	r7,r3,8011144 <_free_r+0x278>
 8011058:	2a000317 	ldw	r8,12(r5)
 801105c:	11400054 	ori	r5,r2,1
 8011060:	3087883a 	add	r3,r6,r2
 8011064:	3a000315 	stw	r8,12(r7)
 8011068:	41c00215 	stw	r7,8(r8)
 801106c:	31400115 	stw	r5,4(r6)
 8011070:	18800015 	stw	r2,0(r3)
 8011074:	003fbd06 	br	8010f6c <_gp+0xfffebf64>
 8011078:	39c0004c 	andi	r7,r7,1
 801107c:	10c5883a 	add	r2,r2,r3
 8011080:	3800071e 	bne	r7,zero,80110a0 <_free_r+0x1d4>
 8011084:	81fffe17 	ldw	r7,-8(r16)
 8011088:	31cdc83a 	sub	r6,r6,r7
 801108c:	30c00317 	ldw	r3,12(r6)
 8011090:	31400217 	ldw	r5,8(r6)
 8011094:	11c5883a 	add	r2,r2,r7
 8011098:	28c00315 	stw	r3,12(r5)
 801109c:	19400215 	stw	r5,8(r3)
 80110a0:	10c00054 	ori	r3,r2,1
 80110a4:	30c00115 	stw	r3,4(r6)
 80110a8:	00c200b4 	movhi	r3,2050
 80110ac:	18f40504 	addi	r3,r3,-12268
 80110b0:	18c00017 	ldw	r3,0(r3)
 80110b4:	21800215 	stw	r6,8(r4)
 80110b8:	10ffc036 	bltu	r2,r3,8010fbc <_gp+0xfffebfb4>
 80110bc:	008200b4 	movhi	r2,2050
 80110c0:	10bae904 	addi	r2,r2,-5212
 80110c4:	11400017 	ldw	r5,0(r2)
 80110c8:	8809883a 	mov	r4,r17
 80110cc:	8010da80 	call	8010da8 <_malloc_trim_r>
 80110d0:	003fba06 	br	8010fbc <_gp+0xfffebfb4>
 80110d4:	28c9883a 	add	r4,r5,r3
 80110d8:	21000117 	ldw	r4,4(r4)
 80110dc:	2100004c 	andi	r4,r4,1
 80110e0:	2000391e 	bne	r4,zero,80111c8 <_free_r+0x2fc>
 80110e4:	29c00217 	ldw	r7,8(r5)
 80110e8:	29000317 	ldw	r4,12(r5)
 80110ec:	1885883a 	add	r2,r3,r2
 80110f0:	10c00054 	ori	r3,r2,1
 80110f4:	39000315 	stw	r4,12(r7)
 80110f8:	21c00215 	stw	r7,8(r4)
 80110fc:	30c00115 	stw	r3,4(r6)
 8011100:	308d883a 	add	r6,r6,r2
 8011104:	30800015 	stw	r2,0(r6)
 8011108:	003fac06 	br	8010fbc <_gp+0xfffebfb4>
 801110c:	00c00504 	movi	r3,20
 8011110:	19401536 	bltu	r3,r5,8011168 <_free_r+0x29c>
 8011114:	28c01704 	addi	r3,r5,92
 8011118:	18c7883a 	add	r3,r3,r3
 801111c:	294016c4 	addi	r5,r5,91
 8011120:	003fb406 	br	8010ff4 <_gp+0xfffebfec>
 8011124:	280bd0ba 	srai	r5,r5,2
 8011128:	00c00044 	movi	r3,1
 801112c:	38800117 	ldw	r2,4(r7)
 8011130:	194a983a 	sll	r5,r3,r5
 8011134:	2007883a 	mov	r3,r4
 8011138:	2884b03a 	or	r2,r5,r2
 801113c:	38800115 	stw	r2,4(r7)
 8011140:	003fbb06 	br	8011030 <_gp+0xfffec028>
 8011144:	21800515 	stw	r6,20(r4)
 8011148:	21800415 	stw	r6,16(r4)
 801114c:	10c00054 	ori	r3,r2,1
 8011150:	31c00315 	stw	r7,12(r6)
 8011154:	31c00215 	stw	r7,8(r6)
 8011158:	30c00115 	stw	r3,4(r6)
 801115c:	308d883a 	add	r6,r6,r2
 8011160:	30800015 	stw	r2,0(r6)
 8011164:	003f9506 	br	8010fbc <_gp+0xfffebfb4>
 8011168:	00c01504 	movi	r3,84
 801116c:	19400536 	bltu	r3,r5,8011184 <_free_r+0x2b8>
 8011170:	100ad33a 	srli	r5,r2,12
 8011174:	28c01bc4 	addi	r3,r5,111
 8011178:	18c7883a 	add	r3,r3,r3
 801117c:	29401b84 	addi	r5,r5,110
 8011180:	003f9c06 	br	8010ff4 <_gp+0xfffebfec>
 8011184:	00c05504 	movi	r3,340
 8011188:	19400536 	bltu	r3,r5,80111a0 <_free_r+0x2d4>
 801118c:	100ad3fa 	srli	r5,r2,15
 8011190:	28c01e04 	addi	r3,r5,120
 8011194:	18c7883a 	add	r3,r3,r3
 8011198:	29401dc4 	addi	r5,r5,119
 801119c:	003f9506 	br	8010ff4 <_gp+0xfffebfec>
 80111a0:	00c15504 	movi	r3,1364
 80111a4:	19400536 	bltu	r3,r5,80111bc <_free_r+0x2f0>
 80111a8:	100ad4ba 	srli	r5,r2,18
 80111ac:	28c01f44 	addi	r3,r5,125
 80111b0:	18c7883a 	add	r3,r3,r3
 80111b4:	29401f04 	addi	r5,r5,124
 80111b8:	003f8e06 	br	8010ff4 <_gp+0xfffebfec>
 80111bc:	00c03f84 	movi	r3,254
 80111c0:	01401f84 	movi	r5,126
 80111c4:	003f8b06 	br	8010ff4 <_gp+0xfffebfec>
 80111c8:	10c00054 	ori	r3,r2,1
 80111cc:	30c00115 	stw	r3,4(r6)
 80111d0:	308d883a 	add	r6,r6,r2
 80111d4:	30800015 	stw	r2,0(r6)
 80111d8:	003f7806 	br	8010fbc <_gp+0xfffebfb4>

080111dc <_fseek_r>:
 80111dc:	80111fc1 	jmpi	80111fc <_fseeko_r>

080111e0 <fseek>:
 80111e0:	008200b4 	movhi	r2,2050
 80111e4:	10b40304 	addi	r2,r2,-12276
 80111e8:	300f883a 	mov	r7,r6
 80111ec:	280d883a 	mov	r6,r5
 80111f0:	200b883a 	mov	r5,r4
 80111f4:	11000017 	ldw	r4,0(r2)
 80111f8:	80111fc1 	jmpi	80111fc <_fseeko_r>

080111fc <_fseeko_r>:
 80111fc:	deffe804 	addi	sp,sp,-96
 8011200:	dd401415 	stw	r21,80(sp)
 8011204:	dc801115 	stw	r18,68(sp)
 8011208:	dc401015 	stw	r17,64(sp)
 801120c:	dc000f15 	stw	r16,60(sp)
 8011210:	dfc01715 	stw	ra,92(sp)
 8011214:	ddc01615 	stw	r23,88(sp)
 8011218:	dd801515 	stw	r22,84(sp)
 801121c:	dd001315 	stw	r20,76(sp)
 8011220:	dcc01215 	stw	r19,72(sp)
 8011224:	2023883a 	mov	r17,r4
 8011228:	2821883a 	mov	r16,r5
 801122c:	302b883a 	mov	r21,r6
 8011230:	3825883a 	mov	r18,r7
 8011234:	20000226 	beq	r4,zero,8011240 <_fseeko_r+0x44>
 8011238:	20800e17 	ldw	r2,56(r4)
 801123c:	10005a26 	beq	r2,zero,80113a8 <_fseeko_r+0x1ac>
 8011240:	8080030b 	ldhu	r2,12(r16)
 8011244:	00c04204 	movi	r3,264
 8011248:	1080420c 	andi	r2,r2,264
 801124c:	10c05b26 	beq	r2,r3,80113bc <_fseeko_r+0x1c0>
 8011250:	85000a17 	ldw	r20,40(r16)
 8011254:	a000f626 	beq	r20,zero,8011630 <_fseeko_r+0x434>
 8011258:	00800044 	movi	r2,1
 801125c:	90803e26 	beq	r18,r2,8011358 <_fseeko_r+0x15c>
 8011260:	00800084 	movi	r2,2
 8011264:	90801026 	beq	r18,r2,80112a8 <_fseeko_r+0xac>
 8011268:	90000f26 	beq	r18,zero,80112a8 <_fseeko_r+0xac>
 801126c:	00800584 	movi	r2,22
 8011270:	88800015 	stw	r2,0(r17)
 8011274:	04ffffc4 	movi	r19,-1
 8011278:	9805883a 	mov	r2,r19
 801127c:	dfc01717 	ldw	ra,92(sp)
 8011280:	ddc01617 	ldw	r23,88(sp)
 8011284:	dd801517 	ldw	r22,84(sp)
 8011288:	dd401417 	ldw	r21,80(sp)
 801128c:	dd001317 	ldw	r20,76(sp)
 8011290:	dcc01217 	ldw	r19,72(sp)
 8011294:	dc801117 	ldw	r18,68(sp)
 8011298:	dc401017 	ldw	r17,64(sp)
 801129c:	dc000f17 	ldw	r16,60(sp)
 80112a0:	dec01804 	addi	sp,sp,96
 80112a4:	f800283a 	ret
 80112a8:	80800417 	ldw	r2,16(r16)
 80112ac:	002f883a 	mov	r23,zero
 80112b0:	0027883a 	mov	r19,zero
 80112b4:	1000cb26 	beq	r2,zero,80115e4 <_fseeko_r+0x3e8>
 80112b8:	8080030b 	ldhu	r2,12(r16)
 80112bc:	10c2068c 	andi	r3,r2,2074
 80112c0:	1800071e 	bne	r3,zero,80112e0 <_fseeko_r+0xe4>
 80112c4:	10c1000c 	andi	r3,r2,1024
 80112c8:	1800451e 	bne	r3,zero,80113e0 <_fseeko_r+0x1e4>
 80112cc:	00c20074 	movhi	r3,2049
 80112d0:	18ca1b04 	addi	r3,r3,10348
 80112d4:	a0c0b726 	beq	r20,r3,80115b4 <_fseeko_r+0x3b8>
 80112d8:	10820014 	ori	r2,r2,2048
 80112dc:	8080030d 	sth	r2,12(r16)
 80112e0:	800b883a 	mov	r5,r16
 80112e4:	8809883a 	mov	r4,r17
 80112e8:	80108600 	call	8010860 <_fflush_r>
 80112ec:	1027883a 	mov	r19,r2
 80112f0:	103fe01e 	bne	r2,zero,8011274 <_gp+0xfffec26c>
 80112f4:	81400717 	ldw	r5,28(r16)
 80112f8:	900f883a 	mov	r7,r18
 80112fc:	a80d883a 	mov	r6,r21
 8011300:	8809883a 	mov	r4,r17
 8011304:	a03ee83a 	callr	r20
 8011308:	00ffffc4 	movi	r3,-1
 801130c:	10ffd926 	beq	r2,r3,8011274 <_gp+0xfffec26c>
 8011310:	81400c17 	ldw	r5,48(r16)
 8011314:	28000526 	beq	r5,zero,801132c <_fseeko_r+0x130>
 8011318:	80801004 	addi	r2,r16,64
 801131c:	28800226 	beq	r5,r2,8011328 <_fseeko_r+0x12c>
 8011320:	8809883a 	mov	r4,r17
 8011324:	8010ecc0 	call	8010ecc <_free_r>
 8011328:	80000c15 	stw	zero,48(r16)
 801132c:	8080030b 	ldhu	r2,12(r16)
 8011330:	80c00417 	ldw	r3,16(r16)
 8011334:	80000115 	stw	zero,4(r16)
 8011338:	10bdf7cc 	andi	r2,r2,63455
 801133c:	80c00015 	stw	r3,0(r16)
 8011340:	8080030d 	sth	r2,12(r16)
 8011344:	01800204 	movi	r6,8
 8011348:	000b883a 	mov	r5,zero
 801134c:	81001704 	addi	r4,r16,92
 8011350:	80123c80 	call	80123c8 <memset>
 8011354:	003fc806 	br	8011278 <_gp+0xfffec270>
 8011358:	800b883a 	mov	r5,r16
 801135c:	8809883a 	mov	r4,r17
 8011360:	80108600 	call	8010860 <_fflush_r>
 8011364:	8080030b 	ldhu	r2,12(r16)
 8011368:	10c4000c 	andi	r3,r2,4096
 801136c:	18008726 	beq	r3,zero,801158c <_fseeko_r+0x390>
 8011370:	84c01417 	ldw	r19,80(r16)
 8011374:	10c0010c 	andi	r3,r2,4
 8011378:	1800431e 	bne	r3,zero,8011488 <_fseeko_r+0x28c>
 801137c:	1080020c 	andi	r2,r2,8
 8011380:	10008026 	beq	r2,zero,8011584 <_fseeko_r+0x388>
 8011384:	80c00017 	ldw	r3,0(r16)
 8011388:	80800417 	ldw	r2,16(r16)
 801138c:	18000226 	beq	r3,zero,8011398 <_fseeko_r+0x19c>
 8011390:	1887c83a 	sub	r3,r3,r2
 8011394:	98e7883a 	add	r19,r19,r3
 8011398:	aceb883a 	add	r21,r21,r19
 801139c:	05c00044 	movi	r23,1
 80113a0:	0025883a 	mov	r18,zero
 80113a4:	003fc306 	br	80112b4 <_gp+0xfffec2ac>
 80113a8:	8010c4c0 	call	8010c4c <__sinit>
 80113ac:	8080030b 	ldhu	r2,12(r16)
 80113b0:	00c04204 	movi	r3,264
 80113b4:	1080420c 	andi	r2,r2,264
 80113b8:	10ffa51e 	bne	r2,r3,8011250 <_gp+0xfffec248>
 80113bc:	800b883a 	mov	r5,r16
 80113c0:	8809883a 	mov	r4,r17
 80113c4:	80108600 	call	8010860 <_fflush_r>
 80113c8:	003fa106 	br	8011250 <_gp+0xfffec248>
 80113cc:	8080030b 	ldhu	r2,12(r16)
 80113d0:	00c10004 	movi	r3,1024
 80113d4:	80c01315 	stw	r3,76(r16)
 80113d8:	10c4b03a 	or	r2,r2,r3
 80113dc:	8080030d 	sth	r2,12(r16)
 80113e0:	9000311e 	bne	r18,zero,80114a8 <_fseeko_r+0x2ac>
 80113e4:	a82d883a 	mov	r22,r21
 80113e8:	b800371e 	bne	r23,zero,80114c8 <_fseeko_r+0x2cc>
 80113ec:	8080030b 	ldhu	r2,12(r16)
 80113f0:	1084000c 	andi	r2,r2,4096
 80113f4:	10007f26 	beq	r2,zero,80115f4 <_fseeko_r+0x3f8>
 80113f8:	80801417 	ldw	r2,80(r16)
 80113fc:	81800117 	ldw	r6,4(r16)
 8011400:	81400c17 	ldw	r5,48(r16)
 8011404:	11a7c83a 	sub	r19,r2,r6
 8011408:	28008226 	beq	r5,zero,8011614 <_fseeko_r+0x418>
 801140c:	81c00f17 	ldw	r7,60(r16)
 8011410:	99e7c83a 	sub	r19,r19,r7
 8011414:	81000e17 	ldw	r4,56(r16)
 8011418:	80800417 	ldw	r2,16(r16)
 801141c:	99a7883a 	add	r19,r19,r6
 8011420:	2087c83a 	sub	r3,r4,r2
 8011424:	98e7c83a 	sub	r19,r19,r3
 8011428:	38c7883a 	add	r3,r7,r3
 801142c:	b4c02b16 	blt	r22,r19,80114dc <_fseeko_r+0x2e0>
 8011430:	98c9883a 	add	r4,r19,r3
 8011434:	b100292e 	bgeu	r22,r4,80114dc <_fseeko_r+0x2e0>
 8011438:	b4e7c83a 	sub	r19,r22,r19
 801143c:	14c5883a 	add	r2,r2,r19
 8011440:	1ce7c83a 	sub	r19,r3,r19
 8011444:	80800015 	stw	r2,0(r16)
 8011448:	84c00115 	stw	r19,4(r16)
 801144c:	28000526 	beq	r5,zero,8011464 <_fseeko_r+0x268>
 8011450:	80801004 	addi	r2,r16,64
 8011454:	28800226 	beq	r5,r2,8011460 <_fseeko_r+0x264>
 8011458:	8809883a 	mov	r4,r17
 801145c:	8010ecc0 	call	8010ecc <_free_r>
 8011460:	80000c15 	stw	zero,48(r16)
 8011464:	8080030b 	ldhu	r2,12(r16)
 8011468:	01800204 	movi	r6,8
 801146c:	000b883a 	mov	r5,zero
 8011470:	10bff7cc 	andi	r2,r2,65503
 8011474:	8080030d 	sth	r2,12(r16)
 8011478:	81001704 	addi	r4,r16,92
 801147c:	80123c80 	call	80123c8 <memset>
 8011480:	0027883a 	mov	r19,zero
 8011484:	003f7c06 	br	8011278 <_gp+0xfffec270>
 8011488:	80c00117 	ldw	r3,4(r16)
 801148c:	80800c17 	ldw	r2,48(r16)
 8011490:	98e7c83a 	sub	r19,r19,r3
 8011494:	10003b26 	beq	r2,zero,8011584 <_fseeko_r+0x388>
 8011498:	80c00f17 	ldw	r3,60(r16)
 801149c:	80800417 	ldw	r2,16(r16)
 80114a0:	98e7c83a 	sub	r19,r19,r3
 80114a4:	003fbc06 	br	8011398 <_gp+0xfffec390>
 80114a8:	8140038f 	ldh	r5,14(r16)
 80114ac:	d80d883a 	mov	r6,sp
 80114b0:	8809883a 	mov	r4,r17
 80114b4:	801165c0 	call	801165c <_fstat_r>
 80114b8:	103f891e 	bne	r2,zero,80112e0 <_gp+0xfffec2d8>
 80114bc:	dd800417 	ldw	r22,16(sp)
 80114c0:	adad883a 	add	r22,r21,r22
 80114c4:	b83fc926 	beq	r23,zero,80113ec <_gp+0xfffec3e4>
 80114c8:	81400c17 	ldw	r5,48(r16)
 80114cc:	81800117 	ldw	r6,4(r16)
 80114d0:	28005026 	beq	r5,zero,8011614 <_fseeko_r+0x418>
 80114d4:	81c00f17 	ldw	r7,60(r16)
 80114d8:	003fce06 	br	8011414 <_gp+0xfffec40c>
 80114dc:	84c01317 	ldw	r19,76(r16)
 80114e0:	81400717 	ldw	r5,28(r16)
 80114e4:	000f883a 	mov	r7,zero
 80114e8:	04e7c83a 	sub	r19,zero,r19
 80114ec:	9da6703a 	and	r19,r19,r22
 80114f0:	980d883a 	mov	r6,r19
 80114f4:	8809883a 	mov	r4,r17
 80114f8:	a03ee83a 	callr	r20
 80114fc:	00ffffc4 	movi	r3,-1
 8011500:	10ff7726 	beq	r2,r3,80112e0 <_gp+0xfffec2d8>
 8011504:	80800417 	ldw	r2,16(r16)
 8011508:	81400c17 	ldw	r5,48(r16)
 801150c:	80000115 	stw	zero,4(r16)
 8011510:	80800015 	stw	r2,0(r16)
 8011514:	28000526 	beq	r5,zero,801152c <_fseeko_r+0x330>
 8011518:	80801004 	addi	r2,r16,64
 801151c:	28800226 	beq	r5,r2,8011528 <_fseeko_r+0x32c>
 8011520:	8809883a 	mov	r4,r17
 8011524:	8010ecc0 	call	8010ecc <_free_r>
 8011528:	80000c15 	stw	zero,48(r16)
 801152c:	8080030b 	ldhu	r2,12(r16)
 8011530:	b4e7c83a 	sub	r19,r22,r19
 8011534:	10bff7cc 	andi	r2,r2,65503
 8011538:	8080030d 	sth	r2,12(r16)
 801153c:	98000b26 	beq	r19,zero,801156c <_fseeko_r+0x370>
 8011540:	800b883a 	mov	r5,r16
 8011544:	8809883a 	mov	r4,r17
 8011548:	801256c0 	call	801256c <__srefill_r>
 801154c:	103f641e 	bne	r2,zero,80112e0 <_gp+0xfffec2d8>
 8011550:	80800117 	ldw	r2,4(r16)
 8011554:	14ff6236 	bltu	r2,r19,80112e0 <_gp+0xfffec2d8>
 8011558:	80c00017 	ldw	r3,0(r16)
 801155c:	14c5c83a 	sub	r2,r2,r19
 8011560:	80800115 	stw	r2,4(r16)
 8011564:	1ce7883a 	add	r19,r3,r19
 8011568:	84c00015 	stw	r19,0(r16)
 801156c:	01800204 	movi	r6,8
 8011570:	000b883a 	mov	r5,zero
 8011574:	81001704 	addi	r4,r16,92
 8011578:	80123c80 	call	80123c8 <memset>
 801157c:	0027883a 	mov	r19,zero
 8011580:	003f3d06 	br	8011278 <_gp+0xfffec270>
 8011584:	80800417 	ldw	r2,16(r16)
 8011588:	003f8306 	br	8011398 <_gp+0xfffec390>
 801158c:	81400717 	ldw	r5,28(r16)
 8011590:	900f883a 	mov	r7,r18
 8011594:	000d883a 	mov	r6,zero
 8011598:	8809883a 	mov	r4,r17
 801159c:	a03ee83a 	callr	r20
 80115a0:	1027883a 	mov	r19,r2
 80115a4:	00bfffc4 	movi	r2,-1
 80115a8:	98bf3226 	beq	r19,r2,8011274 <_gp+0xfffec26c>
 80115ac:	8080030b 	ldhu	r2,12(r16)
 80115b0:	003f7006 	br	8011374 <_gp+0xfffec36c>
 80115b4:	8140038f 	ldh	r5,14(r16)
 80115b8:	283f4716 	blt	r5,zero,80112d8 <_gp+0xfffec2d0>
 80115bc:	d80d883a 	mov	r6,sp
 80115c0:	8809883a 	mov	r4,r17
 80115c4:	801165c0 	call	801165c <_fstat_r>
 80115c8:	1000041e 	bne	r2,zero,80115dc <_fseeko_r+0x3e0>
 80115cc:	d8800117 	ldw	r2,4(sp)
 80115d0:	00e00014 	movui	r3,32768
 80115d4:	10bc000c 	andi	r2,r2,61440
 80115d8:	10ff7c26 	beq	r2,r3,80113cc <_gp+0xfffec3c4>
 80115dc:	8080030b 	ldhu	r2,12(r16)
 80115e0:	003f3d06 	br	80112d8 <_gp+0xfffec2d0>
 80115e4:	800b883a 	mov	r5,r16
 80115e8:	8809883a 	mov	r4,r17
 80115ec:	80118b80 	call	80118b8 <__smakebuf_r>
 80115f0:	003f3106 	br	80112b8 <_gp+0xfffec2b0>
 80115f4:	81400717 	ldw	r5,28(r16)
 80115f8:	01c00044 	movi	r7,1
 80115fc:	000d883a 	mov	r6,zero
 8011600:	8809883a 	mov	r4,r17
 8011604:	a03ee83a 	callr	r20
 8011608:	00ffffc4 	movi	r3,-1
 801160c:	10ff7b1e 	bne	r2,r3,80113fc <_gp+0xfffec3f4>
 8011610:	003f3306 	br	80112e0 <_gp+0xfffec2d8>
 8011614:	80c00017 	ldw	r3,0(r16)
 8011618:	80800417 	ldw	r2,16(r16)
 801161c:	000b883a 	mov	r5,zero
 8011620:	1887c83a 	sub	r3,r3,r2
 8011624:	98e7c83a 	sub	r19,r19,r3
 8011628:	30c7883a 	add	r3,r6,r3
 801162c:	003f7f06 	br	801142c <_gp+0xfffec424>
 8011630:	00800744 	movi	r2,29
 8011634:	88800015 	stw	r2,0(r17)
 8011638:	04ffffc4 	movi	r19,-1
 801163c:	003f0e06 	br	8011278 <_gp+0xfffec270>

08011640 <fseeko>:
 8011640:	008200b4 	movhi	r2,2050
 8011644:	10b40304 	addi	r2,r2,-12276
 8011648:	300f883a 	mov	r7,r6
 801164c:	280d883a 	mov	r6,r5
 8011650:	200b883a 	mov	r5,r4
 8011654:	11000017 	ldw	r4,0(r2)
 8011658:	80111fc1 	jmpi	80111fc <_fseeko_r>

0801165c <_fstat_r>:
 801165c:	defffd04 	addi	sp,sp,-12
 8011660:	2805883a 	mov	r2,r5
 8011664:	dc000015 	stw	r16,0(sp)
 8011668:	040200b4 	movhi	r16,2050
 801166c:	dc400115 	stw	r17,4(sp)
 8011670:	843ae604 	addi	r16,r16,-5224
 8011674:	2023883a 	mov	r17,r4
 8011678:	300b883a 	mov	r5,r6
 801167c:	1009883a 	mov	r4,r2
 8011680:	dfc00215 	stw	ra,8(sp)
 8011684:	80000015 	stw	zero,0(r16)
 8011688:	8013e100 	call	8013e10 <fstat>
 801168c:	00ffffc4 	movi	r3,-1
 8011690:	10c00526 	beq	r2,r3,80116a8 <_fstat_r+0x4c>
 8011694:	dfc00217 	ldw	ra,8(sp)
 8011698:	dc400117 	ldw	r17,4(sp)
 801169c:	dc000017 	ldw	r16,0(sp)
 80116a0:	dec00304 	addi	sp,sp,12
 80116a4:	f800283a 	ret
 80116a8:	80c00017 	ldw	r3,0(r16)
 80116ac:	183ff926 	beq	r3,zero,8011694 <_gp+0xfffec68c>
 80116b0:	88c00015 	stw	r3,0(r17)
 80116b4:	003ff706 	br	8011694 <_gp+0xfffec68c>

080116b8 <_fwalk>:
 80116b8:	defff704 	addi	sp,sp,-36
 80116bc:	dd000415 	stw	r20,16(sp)
 80116c0:	dfc00815 	stw	ra,32(sp)
 80116c4:	ddc00715 	stw	r23,28(sp)
 80116c8:	dd800615 	stw	r22,24(sp)
 80116cc:	dd400515 	stw	r21,20(sp)
 80116d0:	dcc00315 	stw	r19,12(sp)
 80116d4:	dc800215 	stw	r18,8(sp)
 80116d8:	dc400115 	stw	r17,4(sp)
 80116dc:	dc000015 	stw	r16,0(sp)
 80116e0:	2500b804 	addi	r20,r4,736
 80116e4:	a0002326 	beq	r20,zero,8011774 <_fwalk+0xbc>
 80116e8:	282b883a 	mov	r21,r5
 80116ec:	002f883a 	mov	r23,zero
 80116f0:	05800044 	movi	r22,1
 80116f4:	04ffffc4 	movi	r19,-1
 80116f8:	a4400117 	ldw	r17,4(r20)
 80116fc:	a4800217 	ldw	r18,8(r20)
 8011700:	8c7fffc4 	addi	r17,r17,-1
 8011704:	88000d16 	blt	r17,zero,801173c <_fwalk+0x84>
 8011708:	94000304 	addi	r16,r18,12
 801170c:	94800384 	addi	r18,r18,14
 8011710:	8080000b 	ldhu	r2,0(r16)
 8011714:	8c7fffc4 	addi	r17,r17,-1
 8011718:	813ffd04 	addi	r4,r16,-12
 801171c:	b080042e 	bgeu	r22,r2,8011730 <_fwalk+0x78>
 8011720:	9080000f 	ldh	r2,0(r18)
 8011724:	14c00226 	beq	r2,r19,8011730 <_fwalk+0x78>
 8011728:	a83ee83a 	callr	r21
 801172c:	b8aeb03a 	or	r23,r23,r2
 8011730:	84001a04 	addi	r16,r16,104
 8011734:	94801a04 	addi	r18,r18,104
 8011738:	8cfff51e 	bne	r17,r19,8011710 <_gp+0xfffec708>
 801173c:	a5000017 	ldw	r20,0(r20)
 8011740:	a03fed1e 	bne	r20,zero,80116f8 <_gp+0xfffec6f0>
 8011744:	b805883a 	mov	r2,r23
 8011748:	dfc00817 	ldw	ra,32(sp)
 801174c:	ddc00717 	ldw	r23,28(sp)
 8011750:	dd800617 	ldw	r22,24(sp)
 8011754:	dd400517 	ldw	r21,20(sp)
 8011758:	dd000417 	ldw	r20,16(sp)
 801175c:	dcc00317 	ldw	r19,12(sp)
 8011760:	dc800217 	ldw	r18,8(sp)
 8011764:	dc400117 	ldw	r17,4(sp)
 8011768:	dc000017 	ldw	r16,0(sp)
 801176c:	dec00904 	addi	sp,sp,36
 8011770:	f800283a 	ret
 8011774:	002f883a 	mov	r23,zero
 8011778:	003ff206 	br	8011744 <_gp+0xfffec73c>

0801177c <_fwalk_reent>:
 801177c:	defff704 	addi	sp,sp,-36
 8011780:	dd000415 	stw	r20,16(sp)
 8011784:	dfc00815 	stw	ra,32(sp)
 8011788:	ddc00715 	stw	r23,28(sp)
 801178c:	dd800615 	stw	r22,24(sp)
 8011790:	dd400515 	stw	r21,20(sp)
 8011794:	dcc00315 	stw	r19,12(sp)
 8011798:	dc800215 	stw	r18,8(sp)
 801179c:	dc400115 	stw	r17,4(sp)
 80117a0:	dc000015 	stw	r16,0(sp)
 80117a4:	2500b804 	addi	r20,r4,736
 80117a8:	a0002326 	beq	r20,zero,8011838 <_fwalk_reent+0xbc>
 80117ac:	282b883a 	mov	r21,r5
 80117b0:	2027883a 	mov	r19,r4
 80117b4:	002f883a 	mov	r23,zero
 80117b8:	05800044 	movi	r22,1
 80117bc:	04bfffc4 	movi	r18,-1
 80117c0:	a4400117 	ldw	r17,4(r20)
 80117c4:	a4000217 	ldw	r16,8(r20)
 80117c8:	8c7fffc4 	addi	r17,r17,-1
 80117cc:	88000c16 	blt	r17,zero,8011800 <_fwalk_reent+0x84>
 80117d0:	84000304 	addi	r16,r16,12
 80117d4:	8080000b 	ldhu	r2,0(r16)
 80117d8:	8c7fffc4 	addi	r17,r17,-1
 80117dc:	817ffd04 	addi	r5,r16,-12
 80117e0:	b080052e 	bgeu	r22,r2,80117f8 <_fwalk_reent+0x7c>
 80117e4:	8080008f 	ldh	r2,2(r16)
 80117e8:	9809883a 	mov	r4,r19
 80117ec:	14800226 	beq	r2,r18,80117f8 <_fwalk_reent+0x7c>
 80117f0:	a83ee83a 	callr	r21
 80117f4:	b8aeb03a 	or	r23,r23,r2
 80117f8:	84001a04 	addi	r16,r16,104
 80117fc:	8cbff51e 	bne	r17,r18,80117d4 <_gp+0xfffec7cc>
 8011800:	a5000017 	ldw	r20,0(r20)
 8011804:	a03fee1e 	bne	r20,zero,80117c0 <_gp+0xfffec7b8>
 8011808:	b805883a 	mov	r2,r23
 801180c:	dfc00817 	ldw	ra,32(sp)
 8011810:	ddc00717 	ldw	r23,28(sp)
 8011814:	dd800617 	ldw	r22,24(sp)
 8011818:	dd400517 	ldw	r21,20(sp)
 801181c:	dd000417 	ldw	r20,16(sp)
 8011820:	dcc00317 	ldw	r19,12(sp)
 8011824:	dc800217 	ldw	r18,8(sp)
 8011828:	dc400117 	ldw	r17,4(sp)
 801182c:	dc000017 	ldw	r16,0(sp)
 8011830:	dec00904 	addi	sp,sp,36
 8011834:	f800283a 	ret
 8011838:	002f883a 	mov	r23,zero
 801183c:	003ff206 	br	8011808 <_gp+0xfffec800>

08011840 <__getline>:
 8011840:	300f883a 	mov	r7,r6
 8011844:	01800284 	movi	r6,10
 8011848:	801303c1 	jmpi	801303c <__getdelim>

0801184c <__itoa>:
 801184c:	30bfff84 	addi	r2,r6,-2
 8011850:	00c00884 	movi	r3,34
 8011854:	18801436 	bltu	r3,r2,80118a8 <__itoa+0x5c>
 8011858:	defffe04 	addi	sp,sp,-8
 801185c:	dfc00115 	stw	ra,4(sp)
 8011860:	dc000015 	stw	r16,0(sp)
 8011864:	00800284 	movi	r2,10
 8011868:	30800926 	beq	r6,r2,8011890 <__itoa+0x44>
 801186c:	0005883a 	mov	r2,zero
 8011870:	2821883a 	mov	r16,r5
 8011874:	288b883a 	add	r5,r5,r2
 8011878:	8012c000 	call	8012c00 <__utoa>
 801187c:	8005883a 	mov	r2,r16
 8011880:	dfc00117 	ldw	ra,4(sp)
 8011884:	dc000017 	ldw	r16,0(sp)
 8011888:	dec00204 	addi	sp,sp,8
 801188c:	f800283a 	ret
 8011890:	203ff60e 	bge	r4,zero,801186c <_gp+0xfffec864>
 8011894:	00800b44 	movi	r2,45
 8011898:	28800005 	stb	r2,0(r5)
 801189c:	0109c83a 	sub	r4,zero,r4
 80118a0:	00800044 	movi	r2,1
 80118a4:	003ff206 	br	8011870 <_gp+0xfffec868>
 80118a8:	28000005 	stb	zero,0(r5)
 80118ac:	0005883a 	mov	r2,zero
 80118b0:	f800283a 	ret

080118b4 <itoa>:
 80118b4:	801184c1 	jmpi	801184c <__itoa>

080118b8 <__smakebuf_r>:
 80118b8:	2880030b 	ldhu	r2,12(r5)
 80118bc:	10c0008c 	andi	r3,r2,2
 80118c0:	1800411e 	bne	r3,zero,80119c8 <__smakebuf_r+0x110>
 80118c4:	deffec04 	addi	sp,sp,-80
 80118c8:	dc000f15 	stw	r16,60(sp)
 80118cc:	2821883a 	mov	r16,r5
 80118d0:	2940038f 	ldh	r5,14(r5)
 80118d4:	dc401015 	stw	r17,64(sp)
 80118d8:	dfc01315 	stw	ra,76(sp)
 80118dc:	dcc01215 	stw	r19,72(sp)
 80118e0:	dc801115 	stw	r18,68(sp)
 80118e4:	2023883a 	mov	r17,r4
 80118e8:	28001c16 	blt	r5,zero,801195c <__smakebuf_r+0xa4>
 80118ec:	d80d883a 	mov	r6,sp
 80118f0:	801165c0 	call	801165c <_fstat_r>
 80118f4:	10001816 	blt	r2,zero,8011958 <__smakebuf_r+0xa0>
 80118f8:	d8800117 	ldw	r2,4(sp)
 80118fc:	00e00014 	movui	r3,32768
 8011900:	10bc000c 	andi	r2,r2,61440
 8011904:	14c80020 	cmpeqi	r19,r2,8192
 8011908:	10c03726 	beq	r2,r3,80119e8 <__smakebuf_r+0x130>
 801190c:	80c0030b 	ldhu	r3,12(r16)
 8011910:	18c20014 	ori	r3,r3,2048
 8011914:	80c0030d 	sth	r3,12(r16)
 8011918:	00c80004 	movi	r3,8192
 801191c:	10c0521e 	bne	r2,r3,8011a68 <__smakebuf_r+0x1b0>
 8011920:	8140038f 	ldh	r5,14(r16)
 8011924:	8809883a 	mov	r4,r17
 8011928:	80131a00 	call	80131a0 <_isatty_r>
 801192c:	10004c26 	beq	r2,zero,8011a60 <__smakebuf_r+0x1a8>
 8011930:	8080030b 	ldhu	r2,12(r16)
 8011934:	80c010c4 	addi	r3,r16,67
 8011938:	80c00015 	stw	r3,0(r16)
 801193c:	10800054 	ori	r2,r2,1
 8011940:	8080030d 	sth	r2,12(r16)
 8011944:	00800044 	movi	r2,1
 8011948:	80c00415 	stw	r3,16(r16)
 801194c:	80800515 	stw	r2,20(r16)
 8011950:	04810004 	movi	r18,1024
 8011954:	00000706 	br	8011974 <__smakebuf_r+0xbc>
 8011958:	8080030b 	ldhu	r2,12(r16)
 801195c:	10c0200c 	andi	r3,r2,128
 8011960:	18001f1e 	bne	r3,zero,80119e0 <__smakebuf_r+0x128>
 8011964:	04810004 	movi	r18,1024
 8011968:	10820014 	ori	r2,r2,2048
 801196c:	8080030d 	sth	r2,12(r16)
 8011970:	0027883a 	mov	r19,zero
 8011974:	900b883a 	mov	r5,r18
 8011978:	8809883a 	mov	r4,r17
 801197c:	8011a740 	call	8011a74 <_malloc_r>
 8011980:	10002c26 	beq	r2,zero,8011a34 <__smakebuf_r+0x17c>
 8011984:	80c0030b 	ldhu	r3,12(r16)
 8011988:	01020074 	movhi	r4,2049
 801198c:	21023d04 	addi	r4,r4,2292
 8011990:	89000f15 	stw	r4,60(r17)
 8011994:	18c02014 	ori	r3,r3,128
 8011998:	80c0030d 	sth	r3,12(r16)
 801199c:	80800015 	stw	r2,0(r16)
 80119a0:	80800415 	stw	r2,16(r16)
 80119a4:	84800515 	stw	r18,20(r16)
 80119a8:	98001a1e 	bne	r19,zero,8011a14 <__smakebuf_r+0x15c>
 80119ac:	dfc01317 	ldw	ra,76(sp)
 80119b0:	dcc01217 	ldw	r19,72(sp)
 80119b4:	dc801117 	ldw	r18,68(sp)
 80119b8:	dc401017 	ldw	r17,64(sp)
 80119bc:	dc000f17 	ldw	r16,60(sp)
 80119c0:	dec01404 	addi	sp,sp,80
 80119c4:	f800283a 	ret
 80119c8:	288010c4 	addi	r2,r5,67
 80119cc:	28800015 	stw	r2,0(r5)
 80119d0:	28800415 	stw	r2,16(r5)
 80119d4:	00800044 	movi	r2,1
 80119d8:	28800515 	stw	r2,20(r5)
 80119dc:	f800283a 	ret
 80119e0:	04801004 	movi	r18,64
 80119e4:	003fe006 	br	8011968 <_gp+0xfffec960>
 80119e8:	81000a17 	ldw	r4,40(r16)
 80119ec:	00c20074 	movhi	r3,2049
 80119f0:	18ca1b04 	addi	r3,r3,10348
 80119f4:	20ffc51e 	bne	r4,r3,801190c <_gp+0xfffec904>
 80119f8:	8080030b 	ldhu	r2,12(r16)
 80119fc:	04810004 	movi	r18,1024
 8011a00:	84801315 	stw	r18,76(r16)
 8011a04:	1484b03a 	or	r2,r2,r18
 8011a08:	8080030d 	sth	r2,12(r16)
 8011a0c:	0027883a 	mov	r19,zero
 8011a10:	003fd806 	br	8011974 <_gp+0xfffec96c>
 8011a14:	8140038f 	ldh	r5,14(r16)
 8011a18:	8809883a 	mov	r4,r17
 8011a1c:	80131a00 	call	80131a0 <_isatty_r>
 8011a20:	103fe226 	beq	r2,zero,80119ac <_gp+0xfffec9a4>
 8011a24:	8080030b 	ldhu	r2,12(r16)
 8011a28:	10800054 	ori	r2,r2,1
 8011a2c:	8080030d 	sth	r2,12(r16)
 8011a30:	003fde06 	br	80119ac <_gp+0xfffec9a4>
 8011a34:	8080030b 	ldhu	r2,12(r16)
 8011a38:	10c0800c 	andi	r3,r2,512
 8011a3c:	183fdb1e 	bne	r3,zero,80119ac <_gp+0xfffec9a4>
 8011a40:	10800094 	ori	r2,r2,2
 8011a44:	80c010c4 	addi	r3,r16,67
 8011a48:	8080030d 	sth	r2,12(r16)
 8011a4c:	00800044 	movi	r2,1
 8011a50:	80c00015 	stw	r3,0(r16)
 8011a54:	80c00415 	stw	r3,16(r16)
 8011a58:	80800515 	stw	r2,20(r16)
 8011a5c:	003fd306 	br	80119ac <_gp+0xfffec9a4>
 8011a60:	04810004 	movi	r18,1024
 8011a64:	003fc306 	br	8011974 <_gp+0xfffec96c>
 8011a68:	0027883a 	mov	r19,zero
 8011a6c:	04810004 	movi	r18,1024
 8011a70:	003fc006 	br	8011974 <_gp+0xfffec96c>

08011a74 <_malloc_r>:
 8011a74:	defff504 	addi	sp,sp,-44
 8011a78:	dc800315 	stw	r18,12(sp)
 8011a7c:	dfc00a15 	stw	ra,40(sp)
 8011a80:	df000915 	stw	fp,36(sp)
 8011a84:	ddc00815 	stw	r23,32(sp)
 8011a88:	dd800715 	stw	r22,28(sp)
 8011a8c:	dd400615 	stw	r21,24(sp)
 8011a90:	dd000515 	stw	r20,20(sp)
 8011a94:	dcc00415 	stw	r19,16(sp)
 8011a98:	dc400215 	stw	r17,8(sp)
 8011a9c:	dc000115 	stw	r16,4(sp)
 8011aa0:	288002c4 	addi	r2,r5,11
 8011aa4:	00c00584 	movi	r3,22
 8011aa8:	2025883a 	mov	r18,r4
 8011aac:	18807f2e 	bgeu	r3,r2,8011cac <_malloc_r+0x238>
 8011ab0:	047ffe04 	movi	r17,-8
 8011ab4:	1462703a 	and	r17,r2,r17
 8011ab8:	8800a316 	blt	r17,zero,8011d48 <_malloc_r+0x2d4>
 8011abc:	8940a236 	bltu	r17,r5,8011d48 <_malloc_r+0x2d4>
 8011ac0:	80142200 	call	8014220 <__malloc_lock>
 8011ac4:	00807dc4 	movi	r2,503
 8011ac8:	1441e92e 	bgeu	r2,r17,8012270 <_malloc_r+0x7fc>
 8011acc:	8804d27a 	srli	r2,r17,9
 8011ad0:	1000a126 	beq	r2,zero,8011d58 <_malloc_r+0x2e4>
 8011ad4:	00c00104 	movi	r3,4
 8011ad8:	18811e36 	bltu	r3,r2,8011f54 <_malloc_r+0x4e0>
 8011adc:	8804d1ba 	srli	r2,r17,6
 8011ae0:	12000e44 	addi	r8,r2,57
 8011ae4:	11c00e04 	addi	r7,r2,56
 8011ae8:	4209883a 	add	r4,r8,r8
 8011aec:	04c200b4 	movhi	r19,2050
 8011af0:	2109883a 	add	r4,r4,r4
 8011af4:	9cee6904 	addi	r19,r19,-18012
 8011af8:	2109883a 	add	r4,r4,r4
 8011afc:	9909883a 	add	r4,r19,r4
 8011b00:	24000117 	ldw	r16,4(r4)
 8011b04:	213ffe04 	addi	r4,r4,-8
 8011b08:	24009726 	beq	r4,r16,8011d68 <_malloc_r+0x2f4>
 8011b0c:	80800117 	ldw	r2,4(r16)
 8011b10:	01bfff04 	movi	r6,-4
 8011b14:	014003c4 	movi	r5,15
 8011b18:	1184703a 	and	r2,r2,r6
 8011b1c:	1447c83a 	sub	r3,r2,r17
 8011b20:	28c00716 	blt	r5,r3,8011b40 <_malloc_r+0xcc>
 8011b24:	1800920e 	bge	r3,zero,8011d70 <_malloc_r+0x2fc>
 8011b28:	84000317 	ldw	r16,12(r16)
 8011b2c:	24008e26 	beq	r4,r16,8011d68 <_malloc_r+0x2f4>
 8011b30:	80800117 	ldw	r2,4(r16)
 8011b34:	1184703a 	and	r2,r2,r6
 8011b38:	1447c83a 	sub	r3,r2,r17
 8011b3c:	28fff90e 	bge	r5,r3,8011b24 <_gp+0xfffecb1c>
 8011b40:	3809883a 	mov	r4,r7
 8011b44:	018200b4 	movhi	r6,2050
 8011b48:	9c000417 	ldw	r16,16(r19)
 8011b4c:	31ae6904 	addi	r6,r6,-18012
 8011b50:	32000204 	addi	r8,r6,8
 8011b54:	82013426 	beq	r16,r8,8012028 <_malloc_r+0x5b4>
 8011b58:	80c00117 	ldw	r3,4(r16)
 8011b5c:	00bfff04 	movi	r2,-4
 8011b60:	188e703a 	and	r7,r3,r2
 8011b64:	3c45c83a 	sub	r2,r7,r17
 8011b68:	00c003c4 	movi	r3,15
 8011b6c:	18811f16 	blt	r3,r2,8011fec <_malloc_r+0x578>
 8011b70:	32000515 	stw	r8,20(r6)
 8011b74:	32000415 	stw	r8,16(r6)
 8011b78:	10007f0e 	bge	r2,zero,8011d78 <_malloc_r+0x304>
 8011b7c:	00807fc4 	movi	r2,511
 8011b80:	11c0fd36 	bltu	r2,r7,8011f78 <_malloc_r+0x504>
 8011b84:	3806d0fa 	srli	r3,r7,3
 8011b88:	01c00044 	movi	r7,1
 8011b8c:	30800117 	ldw	r2,4(r6)
 8011b90:	19400044 	addi	r5,r3,1
 8011b94:	294b883a 	add	r5,r5,r5
 8011b98:	1807d0ba 	srai	r3,r3,2
 8011b9c:	294b883a 	add	r5,r5,r5
 8011ba0:	294b883a 	add	r5,r5,r5
 8011ba4:	298b883a 	add	r5,r5,r6
 8011ba8:	38c6983a 	sll	r3,r7,r3
 8011bac:	29c00017 	ldw	r7,0(r5)
 8011bb0:	2a7ffe04 	addi	r9,r5,-8
 8011bb4:	1886b03a 	or	r3,r3,r2
 8011bb8:	82400315 	stw	r9,12(r16)
 8011bbc:	81c00215 	stw	r7,8(r16)
 8011bc0:	30c00115 	stw	r3,4(r6)
 8011bc4:	2c000015 	stw	r16,0(r5)
 8011bc8:	3c000315 	stw	r16,12(r7)
 8011bcc:	2005d0ba 	srai	r2,r4,2
 8011bd0:	01400044 	movi	r5,1
 8011bd4:	288a983a 	sll	r5,r5,r2
 8011bd8:	19406f36 	bltu	r3,r5,8011d98 <_malloc_r+0x324>
 8011bdc:	28c4703a 	and	r2,r5,r3
 8011be0:	10000a1e 	bne	r2,zero,8011c0c <_malloc_r+0x198>
 8011be4:	00bfff04 	movi	r2,-4
 8011be8:	294b883a 	add	r5,r5,r5
 8011bec:	2088703a 	and	r4,r4,r2
 8011bf0:	28c4703a 	and	r2,r5,r3
 8011bf4:	21000104 	addi	r4,r4,4
 8011bf8:	1000041e 	bne	r2,zero,8011c0c <_malloc_r+0x198>
 8011bfc:	294b883a 	add	r5,r5,r5
 8011c00:	28c4703a 	and	r2,r5,r3
 8011c04:	21000104 	addi	r4,r4,4
 8011c08:	103ffc26 	beq	r2,zero,8011bfc <_gp+0xfffecbf4>
 8011c0c:	02bfff04 	movi	r10,-4
 8011c10:	024003c4 	movi	r9,15
 8011c14:	21800044 	addi	r6,r4,1
 8011c18:	318d883a 	add	r6,r6,r6
 8011c1c:	318d883a 	add	r6,r6,r6
 8011c20:	318d883a 	add	r6,r6,r6
 8011c24:	998d883a 	add	r6,r19,r6
 8011c28:	333ffe04 	addi	r12,r6,-8
 8011c2c:	2017883a 	mov	r11,r4
 8011c30:	31800104 	addi	r6,r6,4
 8011c34:	34000017 	ldw	r16,0(r6)
 8011c38:	31fffd04 	addi	r7,r6,-12
 8011c3c:	81c0041e 	bne	r16,r7,8011c50 <_malloc_r+0x1dc>
 8011c40:	0000fb06 	br	8012030 <_malloc_r+0x5bc>
 8011c44:	1801030e 	bge	r3,zero,8012054 <_malloc_r+0x5e0>
 8011c48:	84000317 	ldw	r16,12(r16)
 8011c4c:	81c0f826 	beq	r16,r7,8012030 <_malloc_r+0x5bc>
 8011c50:	80800117 	ldw	r2,4(r16)
 8011c54:	1284703a 	and	r2,r2,r10
 8011c58:	1447c83a 	sub	r3,r2,r17
 8011c5c:	48fff90e 	bge	r9,r3,8011c44 <_gp+0xfffecc3c>
 8011c60:	80800317 	ldw	r2,12(r16)
 8011c64:	81000217 	ldw	r4,8(r16)
 8011c68:	89400054 	ori	r5,r17,1
 8011c6c:	81400115 	stw	r5,4(r16)
 8011c70:	20800315 	stw	r2,12(r4)
 8011c74:	11000215 	stw	r4,8(r2)
 8011c78:	8463883a 	add	r17,r16,r17
 8011c7c:	9c400515 	stw	r17,20(r19)
 8011c80:	9c400415 	stw	r17,16(r19)
 8011c84:	18800054 	ori	r2,r3,1
 8011c88:	88800115 	stw	r2,4(r17)
 8011c8c:	8a000315 	stw	r8,12(r17)
 8011c90:	8a000215 	stw	r8,8(r17)
 8011c94:	88e3883a 	add	r17,r17,r3
 8011c98:	88c00015 	stw	r3,0(r17)
 8011c9c:	9009883a 	mov	r4,r18
 8011ca0:	80142440 	call	8014244 <__malloc_unlock>
 8011ca4:	80800204 	addi	r2,r16,8
 8011ca8:	00001b06 	br	8011d18 <_malloc_r+0x2a4>
 8011cac:	04400404 	movi	r17,16
 8011cb0:	89402536 	bltu	r17,r5,8011d48 <_malloc_r+0x2d4>
 8011cb4:	80142200 	call	8014220 <__malloc_lock>
 8011cb8:	00800184 	movi	r2,6
 8011cbc:	01000084 	movi	r4,2
 8011cc0:	04c200b4 	movhi	r19,2050
 8011cc4:	1085883a 	add	r2,r2,r2
 8011cc8:	9cee6904 	addi	r19,r19,-18012
 8011ccc:	1085883a 	add	r2,r2,r2
 8011cd0:	9885883a 	add	r2,r19,r2
 8011cd4:	14000117 	ldw	r16,4(r2)
 8011cd8:	10fffe04 	addi	r3,r2,-8
 8011cdc:	80c0d926 	beq	r16,r3,8012044 <_malloc_r+0x5d0>
 8011ce0:	80c00117 	ldw	r3,4(r16)
 8011ce4:	81000317 	ldw	r4,12(r16)
 8011ce8:	00bfff04 	movi	r2,-4
 8011cec:	1884703a 	and	r2,r3,r2
 8011cf0:	81400217 	ldw	r5,8(r16)
 8011cf4:	8085883a 	add	r2,r16,r2
 8011cf8:	10c00117 	ldw	r3,4(r2)
 8011cfc:	29000315 	stw	r4,12(r5)
 8011d00:	21400215 	stw	r5,8(r4)
 8011d04:	18c00054 	ori	r3,r3,1
 8011d08:	10c00115 	stw	r3,4(r2)
 8011d0c:	9009883a 	mov	r4,r18
 8011d10:	80142440 	call	8014244 <__malloc_unlock>
 8011d14:	80800204 	addi	r2,r16,8
 8011d18:	dfc00a17 	ldw	ra,40(sp)
 8011d1c:	df000917 	ldw	fp,36(sp)
 8011d20:	ddc00817 	ldw	r23,32(sp)
 8011d24:	dd800717 	ldw	r22,28(sp)
 8011d28:	dd400617 	ldw	r21,24(sp)
 8011d2c:	dd000517 	ldw	r20,20(sp)
 8011d30:	dcc00417 	ldw	r19,16(sp)
 8011d34:	dc800317 	ldw	r18,12(sp)
 8011d38:	dc400217 	ldw	r17,8(sp)
 8011d3c:	dc000117 	ldw	r16,4(sp)
 8011d40:	dec00b04 	addi	sp,sp,44
 8011d44:	f800283a 	ret
 8011d48:	00800304 	movi	r2,12
 8011d4c:	90800015 	stw	r2,0(r18)
 8011d50:	0005883a 	mov	r2,zero
 8011d54:	003ff006 	br	8011d18 <_gp+0xfffecd10>
 8011d58:	01002004 	movi	r4,128
 8011d5c:	02001004 	movi	r8,64
 8011d60:	01c00fc4 	movi	r7,63
 8011d64:	003f6106 	br	8011aec <_gp+0xfffecae4>
 8011d68:	4009883a 	mov	r4,r8
 8011d6c:	003f7506 	br	8011b44 <_gp+0xfffecb3c>
 8011d70:	81000317 	ldw	r4,12(r16)
 8011d74:	003fde06 	br	8011cf0 <_gp+0xfffecce8>
 8011d78:	81c5883a 	add	r2,r16,r7
 8011d7c:	11400117 	ldw	r5,4(r2)
 8011d80:	9009883a 	mov	r4,r18
 8011d84:	29400054 	ori	r5,r5,1
 8011d88:	11400115 	stw	r5,4(r2)
 8011d8c:	80142440 	call	8014244 <__malloc_unlock>
 8011d90:	80800204 	addi	r2,r16,8
 8011d94:	003fe006 	br	8011d18 <_gp+0xfffecd10>
 8011d98:	9c000217 	ldw	r16,8(r19)
 8011d9c:	00bfff04 	movi	r2,-4
 8011da0:	85800117 	ldw	r22,4(r16)
 8011da4:	b0ac703a 	and	r22,r22,r2
 8011da8:	b4400336 	bltu	r22,r17,8011db8 <_malloc_r+0x344>
 8011dac:	b445c83a 	sub	r2,r22,r17
 8011db0:	00c003c4 	movi	r3,15
 8011db4:	18805d16 	blt	r3,r2,8011f2c <_malloc_r+0x4b8>
 8011db8:	05c200b4 	movhi	r23,2050
 8011dbc:	008200b4 	movhi	r2,2050
 8011dc0:	10bae904 	addi	r2,r2,-5212
 8011dc4:	bdf40404 	addi	r23,r23,-12272
 8011dc8:	15400017 	ldw	r21,0(r2)
 8011dcc:	b8c00017 	ldw	r3,0(r23)
 8011dd0:	00bfffc4 	movi	r2,-1
 8011dd4:	858d883a 	add	r6,r16,r22
 8011dd8:	8d6b883a 	add	r21,r17,r21
 8011ddc:	1880ea26 	beq	r3,r2,8012188 <_malloc_r+0x714>
 8011de0:	ad4403c4 	addi	r21,r21,4111
 8011de4:	00bc0004 	movi	r2,-4096
 8011de8:	a8aa703a 	and	r21,r21,r2
 8011dec:	a80b883a 	mov	r5,r21
 8011df0:	9009883a 	mov	r4,r18
 8011df4:	d9800015 	stw	r6,0(sp)
 8011df8:	80127400 	call	8012740 <_sbrk_r>
 8011dfc:	1029883a 	mov	r20,r2
 8011e00:	00bfffc4 	movi	r2,-1
 8011e04:	d9800017 	ldw	r6,0(sp)
 8011e08:	a080e826 	beq	r20,r2,80121ac <_malloc_r+0x738>
 8011e0c:	a180a636 	bltu	r20,r6,80120a8 <_malloc_r+0x634>
 8011e10:	070200b4 	movhi	fp,2050
 8011e14:	e73afe04 	addi	fp,fp,-5128
 8011e18:	e0800017 	ldw	r2,0(fp)
 8011e1c:	a887883a 	add	r3,r21,r2
 8011e20:	e0c00015 	stw	r3,0(fp)
 8011e24:	3500e626 	beq	r6,r20,80121c0 <_malloc_r+0x74c>
 8011e28:	b9000017 	ldw	r4,0(r23)
 8011e2c:	00bfffc4 	movi	r2,-1
 8011e30:	2080ee26 	beq	r4,r2,80121ec <_malloc_r+0x778>
 8011e34:	a185c83a 	sub	r2,r20,r6
 8011e38:	10c5883a 	add	r2,r2,r3
 8011e3c:	e0800015 	stw	r2,0(fp)
 8011e40:	a0c001cc 	andi	r3,r20,7
 8011e44:	1800bc26 	beq	r3,zero,8012138 <_malloc_r+0x6c4>
 8011e48:	a0e9c83a 	sub	r20,r20,r3
 8011e4c:	00840204 	movi	r2,4104
 8011e50:	a5000204 	addi	r20,r20,8
 8011e54:	10c7c83a 	sub	r3,r2,r3
 8011e58:	a545883a 	add	r2,r20,r21
 8011e5c:	1083ffcc 	andi	r2,r2,4095
 8011e60:	18abc83a 	sub	r21,r3,r2
 8011e64:	a80b883a 	mov	r5,r21
 8011e68:	9009883a 	mov	r4,r18
 8011e6c:	80127400 	call	8012740 <_sbrk_r>
 8011e70:	00ffffc4 	movi	r3,-1
 8011e74:	10c0e126 	beq	r2,r3,80121fc <_malloc_r+0x788>
 8011e78:	1505c83a 	sub	r2,r2,r20
 8011e7c:	1545883a 	add	r2,r2,r21
 8011e80:	10800054 	ori	r2,r2,1
 8011e84:	e0c00017 	ldw	r3,0(fp)
 8011e88:	9d000215 	stw	r20,8(r19)
 8011e8c:	a0800115 	stw	r2,4(r20)
 8011e90:	a8c7883a 	add	r3,r21,r3
 8011e94:	e0c00015 	stw	r3,0(fp)
 8011e98:	84c00e26 	beq	r16,r19,8011ed4 <_malloc_r+0x460>
 8011e9c:	018003c4 	movi	r6,15
 8011ea0:	3580a72e 	bgeu	r6,r22,8012140 <_malloc_r+0x6cc>
 8011ea4:	81400117 	ldw	r5,4(r16)
 8011ea8:	013ffe04 	movi	r4,-8
 8011eac:	b0bffd04 	addi	r2,r22,-12
 8011eb0:	1104703a 	and	r2,r2,r4
 8011eb4:	2900004c 	andi	r4,r5,1
 8011eb8:	2088b03a 	or	r4,r4,r2
 8011ebc:	81000115 	stw	r4,4(r16)
 8011ec0:	01400144 	movi	r5,5
 8011ec4:	8089883a 	add	r4,r16,r2
 8011ec8:	21400115 	stw	r5,4(r4)
 8011ecc:	21400215 	stw	r5,8(r4)
 8011ed0:	3080cd36 	bltu	r6,r2,8012208 <_malloc_r+0x794>
 8011ed4:	008200b4 	movhi	r2,2050
 8011ed8:	10bae804 	addi	r2,r2,-5216
 8011edc:	11000017 	ldw	r4,0(r2)
 8011ee0:	20c0012e 	bgeu	r4,r3,8011ee8 <_malloc_r+0x474>
 8011ee4:	10c00015 	stw	r3,0(r2)
 8011ee8:	008200b4 	movhi	r2,2050
 8011eec:	10bae704 	addi	r2,r2,-5220
 8011ef0:	11000017 	ldw	r4,0(r2)
 8011ef4:	9c000217 	ldw	r16,8(r19)
 8011ef8:	20c0012e 	bgeu	r4,r3,8011f00 <_malloc_r+0x48c>
 8011efc:	10c00015 	stw	r3,0(r2)
 8011f00:	80c00117 	ldw	r3,4(r16)
 8011f04:	00bfff04 	movi	r2,-4
 8011f08:	1886703a 	and	r3,r3,r2
 8011f0c:	1c45c83a 	sub	r2,r3,r17
 8011f10:	1c400236 	bltu	r3,r17,8011f1c <_malloc_r+0x4a8>
 8011f14:	00c003c4 	movi	r3,15
 8011f18:	18800416 	blt	r3,r2,8011f2c <_malloc_r+0x4b8>
 8011f1c:	9009883a 	mov	r4,r18
 8011f20:	80142440 	call	8014244 <__malloc_unlock>
 8011f24:	0005883a 	mov	r2,zero
 8011f28:	003f7b06 	br	8011d18 <_gp+0xfffecd10>
 8011f2c:	88c00054 	ori	r3,r17,1
 8011f30:	80c00115 	stw	r3,4(r16)
 8011f34:	8463883a 	add	r17,r16,r17
 8011f38:	10800054 	ori	r2,r2,1
 8011f3c:	9c400215 	stw	r17,8(r19)
 8011f40:	88800115 	stw	r2,4(r17)
 8011f44:	9009883a 	mov	r4,r18
 8011f48:	80142440 	call	8014244 <__malloc_unlock>
 8011f4c:	80800204 	addi	r2,r16,8
 8011f50:	003f7106 	br	8011d18 <_gp+0xfffecd10>
 8011f54:	00c00504 	movi	r3,20
 8011f58:	18804a2e 	bgeu	r3,r2,8012084 <_malloc_r+0x610>
 8011f5c:	00c01504 	movi	r3,84
 8011f60:	18806e36 	bltu	r3,r2,801211c <_malloc_r+0x6a8>
 8011f64:	8804d33a 	srli	r2,r17,12
 8011f68:	12001bc4 	addi	r8,r2,111
 8011f6c:	11c01b84 	addi	r7,r2,110
 8011f70:	4209883a 	add	r4,r8,r8
 8011f74:	003edd06 	br	8011aec <_gp+0xfffecae4>
 8011f78:	3804d27a 	srli	r2,r7,9
 8011f7c:	00c00104 	movi	r3,4
 8011f80:	1880442e 	bgeu	r3,r2,8012094 <_malloc_r+0x620>
 8011f84:	00c00504 	movi	r3,20
 8011f88:	18808136 	bltu	r3,r2,8012190 <_malloc_r+0x71c>
 8011f8c:	11401704 	addi	r5,r2,92
 8011f90:	10c016c4 	addi	r3,r2,91
 8011f94:	294b883a 	add	r5,r5,r5
 8011f98:	294b883a 	add	r5,r5,r5
 8011f9c:	294b883a 	add	r5,r5,r5
 8011fa0:	994b883a 	add	r5,r19,r5
 8011fa4:	28800017 	ldw	r2,0(r5)
 8011fa8:	018200b4 	movhi	r6,2050
 8011fac:	297ffe04 	addi	r5,r5,-8
 8011fb0:	31ae6904 	addi	r6,r6,-18012
 8011fb4:	28806526 	beq	r5,r2,801214c <_malloc_r+0x6d8>
 8011fb8:	01bfff04 	movi	r6,-4
 8011fbc:	10c00117 	ldw	r3,4(r2)
 8011fc0:	1986703a 	and	r3,r3,r6
 8011fc4:	38c0022e 	bgeu	r7,r3,8011fd0 <_malloc_r+0x55c>
 8011fc8:	10800217 	ldw	r2,8(r2)
 8011fcc:	28bffb1e 	bne	r5,r2,8011fbc <_gp+0xfffecfb4>
 8011fd0:	11400317 	ldw	r5,12(r2)
 8011fd4:	98c00117 	ldw	r3,4(r19)
 8011fd8:	81400315 	stw	r5,12(r16)
 8011fdc:	80800215 	stw	r2,8(r16)
 8011fe0:	2c000215 	stw	r16,8(r5)
 8011fe4:	14000315 	stw	r16,12(r2)
 8011fe8:	003ef806 	br	8011bcc <_gp+0xfffecbc4>
 8011fec:	88c00054 	ori	r3,r17,1
 8011ff0:	80c00115 	stw	r3,4(r16)
 8011ff4:	8463883a 	add	r17,r16,r17
 8011ff8:	34400515 	stw	r17,20(r6)
 8011ffc:	34400415 	stw	r17,16(r6)
 8012000:	10c00054 	ori	r3,r2,1
 8012004:	8a000315 	stw	r8,12(r17)
 8012008:	8a000215 	stw	r8,8(r17)
 801200c:	88c00115 	stw	r3,4(r17)
 8012010:	88a3883a 	add	r17,r17,r2
 8012014:	88800015 	stw	r2,0(r17)
 8012018:	9009883a 	mov	r4,r18
 801201c:	80142440 	call	8014244 <__malloc_unlock>
 8012020:	80800204 	addi	r2,r16,8
 8012024:	003f3c06 	br	8011d18 <_gp+0xfffecd10>
 8012028:	30c00117 	ldw	r3,4(r6)
 801202c:	003ee706 	br	8011bcc <_gp+0xfffecbc4>
 8012030:	5ac00044 	addi	r11,r11,1
 8012034:	588000cc 	andi	r2,r11,3
 8012038:	31800204 	addi	r6,r6,8
 801203c:	103efd1e 	bne	r2,zero,8011c34 <_gp+0xfffecc2c>
 8012040:	00002406 	br	80120d4 <_malloc_r+0x660>
 8012044:	14000317 	ldw	r16,12(r2)
 8012048:	143f251e 	bne	r2,r16,8011ce0 <_gp+0xfffeccd8>
 801204c:	21000084 	addi	r4,r4,2
 8012050:	003ebc06 	br	8011b44 <_gp+0xfffecb3c>
 8012054:	8085883a 	add	r2,r16,r2
 8012058:	10c00117 	ldw	r3,4(r2)
 801205c:	81000317 	ldw	r4,12(r16)
 8012060:	81400217 	ldw	r5,8(r16)
 8012064:	18c00054 	ori	r3,r3,1
 8012068:	10c00115 	stw	r3,4(r2)
 801206c:	29000315 	stw	r4,12(r5)
 8012070:	21400215 	stw	r5,8(r4)
 8012074:	9009883a 	mov	r4,r18
 8012078:	80142440 	call	8014244 <__malloc_unlock>
 801207c:	80800204 	addi	r2,r16,8
 8012080:	003f2506 	br	8011d18 <_gp+0xfffecd10>
 8012084:	12001704 	addi	r8,r2,92
 8012088:	11c016c4 	addi	r7,r2,91
 801208c:	4209883a 	add	r4,r8,r8
 8012090:	003e9606 	br	8011aec <_gp+0xfffecae4>
 8012094:	3804d1ba 	srli	r2,r7,6
 8012098:	11400e44 	addi	r5,r2,57
 801209c:	10c00e04 	addi	r3,r2,56
 80120a0:	294b883a 	add	r5,r5,r5
 80120a4:	003fbc06 	br	8011f98 <_gp+0xfffecf90>
 80120a8:	84ff5926 	beq	r16,r19,8011e10 <_gp+0xfffece08>
 80120ac:	008200b4 	movhi	r2,2050
 80120b0:	10ae6904 	addi	r2,r2,-18012
 80120b4:	14000217 	ldw	r16,8(r2)
 80120b8:	00bfff04 	movi	r2,-4
 80120bc:	80c00117 	ldw	r3,4(r16)
 80120c0:	1886703a 	and	r3,r3,r2
 80120c4:	003f9106 	br	8011f0c <_gp+0xfffecf04>
 80120c8:	60800217 	ldw	r2,8(r12)
 80120cc:	213fffc4 	addi	r4,r4,-1
 80120d0:	1300651e 	bne	r2,r12,8012268 <_malloc_r+0x7f4>
 80120d4:	208000cc 	andi	r2,r4,3
 80120d8:	633ffe04 	addi	r12,r12,-8
 80120dc:	103ffa1e 	bne	r2,zero,80120c8 <_gp+0xfffed0c0>
 80120e0:	98800117 	ldw	r2,4(r19)
 80120e4:	0146303a 	nor	r3,zero,r5
 80120e8:	1884703a 	and	r2,r3,r2
 80120ec:	98800115 	stw	r2,4(r19)
 80120f0:	294b883a 	add	r5,r5,r5
 80120f4:	117f2836 	bltu	r2,r5,8011d98 <_gp+0xfffecd90>
 80120f8:	283f2726 	beq	r5,zero,8011d98 <_gp+0xfffecd90>
 80120fc:	2886703a 	and	r3,r5,r2
 8012100:	5809883a 	mov	r4,r11
 8012104:	183ec31e 	bne	r3,zero,8011c14 <_gp+0xfffecc0c>
 8012108:	294b883a 	add	r5,r5,r5
 801210c:	2886703a 	and	r3,r5,r2
 8012110:	21000104 	addi	r4,r4,4
 8012114:	183ffc26 	beq	r3,zero,8012108 <_gp+0xfffed100>
 8012118:	003ebe06 	br	8011c14 <_gp+0xfffecc0c>
 801211c:	00c05504 	movi	r3,340
 8012120:	18801236 	bltu	r3,r2,801216c <_malloc_r+0x6f8>
 8012124:	8804d3fa 	srli	r2,r17,15
 8012128:	12001e04 	addi	r8,r2,120
 801212c:	11c01dc4 	addi	r7,r2,119
 8012130:	4209883a 	add	r4,r8,r8
 8012134:	003e6d06 	br	8011aec <_gp+0xfffecae4>
 8012138:	00c40004 	movi	r3,4096
 801213c:	003f4606 	br	8011e58 <_gp+0xfffece50>
 8012140:	00800044 	movi	r2,1
 8012144:	a0800115 	stw	r2,4(r20)
 8012148:	003f7406 	br	8011f1c <_gp+0xfffecf14>
 801214c:	1805d0ba 	srai	r2,r3,2
 8012150:	01c00044 	movi	r7,1
 8012154:	30c00117 	ldw	r3,4(r6)
 8012158:	388e983a 	sll	r7,r7,r2
 801215c:	2805883a 	mov	r2,r5
 8012160:	38c6b03a 	or	r3,r7,r3
 8012164:	30c00115 	stw	r3,4(r6)
 8012168:	003f9b06 	br	8011fd8 <_gp+0xfffecfd0>
 801216c:	00c15504 	movi	r3,1364
 8012170:	18801a36 	bltu	r3,r2,80121dc <_malloc_r+0x768>
 8012174:	8804d4ba 	srli	r2,r17,18
 8012178:	12001f44 	addi	r8,r2,125
 801217c:	11c01f04 	addi	r7,r2,124
 8012180:	4209883a 	add	r4,r8,r8
 8012184:	003e5906 	br	8011aec <_gp+0xfffecae4>
 8012188:	ad400404 	addi	r21,r21,16
 801218c:	003f1706 	br	8011dec <_gp+0xfffecde4>
 8012190:	00c01504 	movi	r3,84
 8012194:	18802336 	bltu	r3,r2,8012224 <_malloc_r+0x7b0>
 8012198:	3804d33a 	srli	r2,r7,12
 801219c:	11401bc4 	addi	r5,r2,111
 80121a0:	10c01b84 	addi	r3,r2,110
 80121a4:	294b883a 	add	r5,r5,r5
 80121a8:	003f7b06 	br	8011f98 <_gp+0xfffecf90>
 80121ac:	9c000217 	ldw	r16,8(r19)
 80121b0:	00bfff04 	movi	r2,-4
 80121b4:	80c00117 	ldw	r3,4(r16)
 80121b8:	1886703a 	and	r3,r3,r2
 80121bc:	003f5306 	br	8011f0c <_gp+0xfffecf04>
 80121c0:	3083ffcc 	andi	r2,r6,4095
 80121c4:	103f181e 	bne	r2,zero,8011e28 <_gp+0xfffece20>
 80121c8:	99000217 	ldw	r4,8(r19)
 80121cc:	b545883a 	add	r2,r22,r21
 80121d0:	10800054 	ori	r2,r2,1
 80121d4:	20800115 	stw	r2,4(r4)
 80121d8:	003f3e06 	br	8011ed4 <_gp+0xfffececc>
 80121dc:	01003f84 	movi	r4,254
 80121e0:	02001fc4 	movi	r8,127
 80121e4:	01c01f84 	movi	r7,126
 80121e8:	003e4006 	br	8011aec <_gp+0xfffecae4>
 80121ec:	008200b4 	movhi	r2,2050
 80121f0:	10b40404 	addi	r2,r2,-12272
 80121f4:	15000015 	stw	r20,0(r2)
 80121f8:	003f1106 	br	8011e40 <_gp+0xfffece38>
 80121fc:	00800044 	movi	r2,1
 8012200:	002b883a 	mov	r21,zero
 8012204:	003f1f06 	br	8011e84 <_gp+0xfffece7c>
 8012208:	81400204 	addi	r5,r16,8
 801220c:	9009883a 	mov	r4,r18
 8012210:	8010ecc0 	call	8010ecc <_free_r>
 8012214:	008200b4 	movhi	r2,2050
 8012218:	10bafe04 	addi	r2,r2,-5128
 801221c:	10c00017 	ldw	r3,0(r2)
 8012220:	003f2c06 	br	8011ed4 <_gp+0xfffececc>
 8012224:	00c05504 	movi	r3,340
 8012228:	18800536 	bltu	r3,r2,8012240 <_malloc_r+0x7cc>
 801222c:	3804d3fa 	srli	r2,r7,15
 8012230:	11401e04 	addi	r5,r2,120
 8012234:	10c01dc4 	addi	r3,r2,119
 8012238:	294b883a 	add	r5,r5,r5
 801223c:	003f5606 	br	8011f98 <_gp+0xfffecf90>
 8012240:	00c15504 	movi	r3,1364
 8012244:	18800536 	bltu	r3,r2,801225c <_malloc_r+0x7e8>
 8012248:	3804d4ba 	srli	r2,r7,18
 801224c:	11401f44 	addi	r5,r2,125
 8012250:	10c01f04 	addi	r3,r2,124
 8012254:	294b883a 	add	r5,r5,r5
 8012258:	003f4f06 	br	8011f98 <_gp+0xfffecf90>
 801225c:	01403f84 	movi	r5,254
 8012260:	00c01f84 	movi	r3,126
 8012264:	003f4c06 	br	8011f98 <_gp+0xfffecf90>
 8012268:	98800117 	ldw	r2,4(r19)
 801226c:	003fa006 	br	80120f0 <_gp+0xfffed0e8>
 8012270:	8808d0fa 	srli	r4,r17,3
 8012274:	20800044 	addi	r2,r4,1
 8012278:	1085883a 	add	r2,r2,r2
 801227c:	003e9006 	br	8011cc0 <_gp+0xfffeccb8>

08012280 <memcpy>:
 8012280:	defffd04 	addi	sp,sp,-12
 8012284:	dfc00215 	stw	ra,8(sp)
 8012288:	dc400115 	stw	r17,4(sp)
 801228c:	dc000015 	stw	r16,0(sp)
 8012290:	00c003c4 	movi	r3,15
 8012294:	2005883a 	mov	r2,r4
 8012298:	1980452e 	bgeu	r3,r6,80123b0 <memcpy+0x130>
 801229c:	2906b03a 	or	r3,r5,r4
 80122a0:	18c000cc 	andi	r3,r3,3
 80122a4:	1800441e 	bne	r3,zero,80123b8 <memcpy+0x138>
 80122a8:	347ffc04 	addi	r17,r6,-16
 80122ac:	8822d13a 	srli	r17,r17,4
 80122b0:	28c00104 	addi	r3,r5,4
 80122b4:	23400104 	addi	r13,r4,4
 80122b8:	8820913a 	slli	r16,r17,4
 80122bc:	2b000204 	addi	r12,r5,8
 80122c0:	22c00204 	addi	r11,r4,8
 80122c4:	84000504 	addi	r16,r16,20
 80122c8:	2a800304 	addi	r10,r5,12
 80122cc:	22400304 	addi	r9,r4,12
 80122d0:	2c21883a 	add	r16,r5,r16
 80122d4:	2811883a 	mov	r8,r5
 80122d8:	200f883a 	mov	r7,r4
 80122dc:	41000017 	ldw	r4,0(r8)
 80122e0:	1fc00017 	ldw	ra,0(r3)
 80122e4:	63c00017 	ldw	r15,0(r12)
 80122e8:	39000015 	stw	r4,0(r7)
 80122ec:	53800017 	ldw	r14,0(r10)
 80122f0:	6fc00015 	stw	ra,0(r13)
 80122f4:	5bc00015 	stw	r15,0(r11)
 80122f8:	4b800015 	stw	r14,0(r9)
 80122fc:	18c00404 	addi	r3,r3,16
 8012300:	39c00404 	addi	r7,r7,16
 8012304:	42000404 	addi	r8,r8,16
 8012308:	6b400404 	addi	r13,r13,16
 801230c:	63000404 	addi	r12,r12,16
 8012310:	5ac00404 	addi	r11,r11,16
 8012314:	52800404 	addi	r10,r10,16
 8012318:	4a400404 	addi	r9,r9,16
 801231c:	1c3fef1e 	bne	r3,r16,80122dc <_gp+0xfffed2d4>
 8012320:	89c00044 	addi	r7,r17,1
 8012324:	380e913a 	slli	r7,r7,4
 8012328:	310003cc 	andi	r4,r6,15
 801232c:	02c000c4 	movi	r11,3
 8012330:	11c7883a 	add	r3,r2,r7
 8012334:	29cb883a 	add	r5,r5,r7
 8012338:	5900212e 	bgeu	r11,r4,80123c0 <memcpy+0x140>
 801233c:	1813883a 	mov	r9,r3
 8012340:	2811883a 	mov	r8,r5
 8012344:	200f883a 	mov	r7,r4
 8012348:	42800017 	ldw	r10,0(r8)
 801234c:	4a400104 	addi	r9,r9,4
 8012350:	39ffff04 	addi	r7,r7,-4
 8012354:	4abfff15 	stw	r10,-4(r9)
 8012358:	42000104 	addi	r8,r8,4
 801235c:	59fffa36 	bltu	r11,r7,8012348 <_gp+0xfffed340>
 8012360:	213fff04 	addi	r4,r4,-4
 8012364:	2008d0ba 	srli	r4,r4,2
 8012368:	318000cc 	andi	r6,r6,3
 801236c:	21000044 	addi	r4,r4,1
 8012370:	2109883a 	add	r4,r4,r4
 8012374:	2109883a 	add	r4,r4,r4
 8012378:	1907883a 	add	r3,r3,r4
 801237c:	290b883a 	add	r5,r5,r4
 8012380:	30000626 	beq	r6,zero,801239c <memcpy+0x11c>
 8012384:	198d883a 	add	r6,r3,r6
 8012388:	29c00003 	ldbu	r7,0(r5)
 801238c:	18c00044 	addi	r3,r3,1
 8012390:	29400044 	addi	r5,r5,1
 8012394:	19ffffc5 	stb	r7,-1(r3)
 8012398:	19bffb1e 	bne	r3,r6,8012388 <_gp+0xfffed380>
 801239c:	dfc00217 	ldw	ra,8(sp)
 80123a0:	dc400117 	ldw	r17,4(sp)
 80123a4:	dc000017 	ldw	r16,0(sp)
 80123a8:	dec00304 	addi	sp,sp,12
 80123ac:	f800283a 	ret
 80123b0:	2007883a 	mov	r3,r4
 80123b4:	003ff206 	br	8012380 <_gp+0xfffed378>
 80123b8:	2007883a 	mov	r3,r4
 80123bc:	003ff106 	br	8012384 <_gp+0xfffed37c>
 80123c0:	200d883a 	mov	r6,r4
 80123c4:	003fee06 	br	8012380 <_gp+0xfffed378>

080123c8 <memset>:
 80123c8:	20c000cc 	andi	r3,r4,3
 80123cc:	2005883a 	mov	r2,r4
 80123d0:	18004426 	beq	r3,zero,80124e4 <memset+0x11c>
 80123d4:	31ffffc4 	addi	r7,r6,-1
 80123d8:	30004026 	beq	r6,zero,80124dc <memset+0x114>
 80123dc:	2813883a 	mov	r9,r5
 80123e0:	200d883a 	mov	r6,r4
 80123e4:	2007883a 	mov	r3,r4
 80123e8:	00000406 	br	80123fc <memset+0x34>
 80123ec:	3a3fffc4 	addi	r8,r7,-1
 80123f0:	31800044 	addi	r6,r6,1
 80123f4:	38003926 	beq	r7,zero,80124dc <memset+0x114>
 80123f8:	400f883a 	mov	r7,r8
 80123fc:	18c00044 	addi	r3,r3,1
 8012400:	32400005 	stb	r9,0(r6)
 8012404:	1a0000cc 	andi	r8,r3,3
 8012408:	403ff81e 	bne	r8,zero,80123ec <_gp+0xfffed3e4>
 801240c:	010000c4 	movi	r4,3
 8012410:	21c02d2e 	bgeu	r4,r7,80124c8 <memset+0x100>
 8012414:	29003fcc 	andi	r4,r5,255
 8012418:	200c923a 	slli	r6,r4,8
 801241c:	3108b03a 	or	r4,r6,r4
 8012420:	200c943a 	slli	r6,r4,16
 8012424:	218cb03a 	or	r6,r4,r6
 8012428:	010003c4 	movi	r4,15
 801242c:	21c0182e 	bgeu	r4,r7,8012490 <memset+0xc8>
 8012430:	3b3ffc04 	addi	r12,r7,-16
 8012434:	6018d13a 	srli	r12,r12,4
 8012438:	1a000104 	addi	r8,r3,4
 801243c:	1ac00204 	addi	r11,r3,8
 8012440:	6008913a 	slli	r4,r12,4
 8012444:	1a800304 	addi	r10,r3,12
 8012448:	1813883a 	mov	r9,r3
 801244c:	21000504 	addi	r4,r4,20
 8012450:	1909883a 	add	r4,r3,r4
 8012454:	49800015 	stw	r6,0(r9)
 8012458:	41800015 	stw	r6,0(r8)
 801245c:	59800015 	stw	r6,0(r11)
 8012460:	51800015 	stw	r6,0(r10)
 8012464:	42000404 	addi	r8,r8,16
 8012468:	4a400404 	addi	r9,r9,16
 801246c:	5ac00404 	addi	r11,r11,16
 8012470:	52800404 	addi	r10,r10,16
 8012474:	413ff71e 	bne	r8,r4,8012454 <_gp+0xfffed44c>
 8012478:	63000044 	addi	r12,r12,1
 801247c:	6018913a 	slli	r12,r12,4
 8012480:	39c003cc 	andi	r7,r7,15
 8012484:	010000c4 	movi	r4,3
 8012488:	1b07883a 	add	r3,r3,r12
 801248c:	21c00e2e 	bgeu	r4,r7,80124c8 <memset+0x100>
 8012490:	1813883a 	mov	r9,r3
 8012494:	3811883a 	mov	r8,r7
 8012498:	010000c4 	movi	r4,3
 801249c:	49800015 	stw	r6,0(r9)
 80124a0:	423fff04 	addi	r8,r8,-4
 80124a4:	4a400104 	addi	r9,r9,4
 80124a8:	223ffc36 	bltu	r4,r8,801249c <_gp+0xfffed494>
 80124ac:	393fff04 	addi	r4,r7,-4
 80124b0:	2008d0ba 	srli	r4,r4,2
 80124b4:	39c000cc 	andi	r7,r7,3
 80124b8:	21000044 	addi	r4,r4,1
 80124bc:	2109883a 	add	r4,r4,r4
 80124c0:	2109883a 	add	r4,r4,r4
 80124c4:	1907883a 	add	r3,r3,r4
 80124c8:	38000526 	beq	r7,zero,80124e0 <memset+0x118>
 80124cc:	19cf883a 	add	r7,r3,r7
 80124d0:	19400005 	stb	r5,0(r3)
 80124d4:	18c00044 	addi	r3,r3,1
 80124d8:	38fffd1e 	bne	r7,r3,80124d0 <_gp+0xfffed4c8>
 80124dc:	f800283a 	ret
 80124e0:	f800283a 	ret
 80124e4:	2007883a 	mov	r3,r4
 80124e8:	300f883a 	mov	r7,r6
 80124ec:	003fc706 	br	801240c <_gp+0xfffed404>

080124f0 <_open_r>:
 80124f0:	defffd04 	addi	sp,sp,-12
 80124f4:	2805883a 	mov	r2,r5
 80124f8:	dc000015 	stw	r16,0(sp)
 80124fc:	040200b4 	movhi	r16,2050
 8012500:	dc400115 	stw	r17,4(sp)
 8012504:	300b883a 	mov	r5,r6
 8012508:	843ae604 	addi	r16,r16,-5224
 801250c:	2023883a 	mov	r17,r4
 8012510:	380d883a 	mov	r6,r7
 8012514:	1009883a 	mov	r4,r2
 8012518:	dfc00215 	stw	ra,8(sp)
 801251c:	80000015 	stw	zero,0(r16)
 8012520:	80143900 	call	8014390 <open>
 8012524:	00ffffc4 	movi	r3,-1
 8012528:	10c00526 	beq	r2,r3,8012540 <_open_r+0x50>
 801252c:	dfc00217 	ldw	ra,8(sp)
 8012530:	dc400117 	ldw	r17,4(sp)
 8012534:	dc000017 	ldw	r16,0(sp)
 8012538:	dec00304 	addi	sp,sp,12
 801253c:	f800283a 	ret
 8012540:	80c00017 	ldw	r3,0(r16)
 8012544:	183ff926 	beq	r3,zero,801252c <_gp+0xfffed524>
 8012548:	88c00015 	stw	r3,0(r17)
 801254c:	003ff706 	br	801252c <_gp+0xfffed524>

08012550 <lflush>:
 8012550:	2080030b 	ldhu	r2,12(r4)
 8012554:	00c00244 	movi	r3,9
 8012558:	1080024c 	andi	r2,r2,9
 801255c:	10c00226 	beq	r2,r3,8012568 <lflush+0x18>
 8012560:	0005883a 	mov	r2,zero
 8012564:	f800283a 	ret
 8012568:	80108bc1 	jmpi	80108bc <fflush>

0801256c <__srefill_r>:
 801256c:	defffc04 	addi	sp,sp,-16
 8012570:	dc400115 	stw	r17,4(sp)
 8012574:	dc000015 	stw	r16,0(sp)
 8012578:	dfc00315 	stw	ra,12(sp)
 801257c:	dc800215 	stw	r18,8(sp)
 8012580:	2023883a 	mov	r17,r4
 8012584:	2821883a 	mov	r16,r5
 8012588:	20000226 	beq	r4,zero,8012594 <__srefill_r+0x28>
 801258c:	20800e17 	ldw	r2,56(r4)
 8012590:	10003c26 	beq	r2,zero,8012684 <__srefill_r+0x118>
 8012594:	80c0030b 	ldhu	r3,12(r16)
 8012598:	1908000c 	andi	r4,r3,8192
 801259c:	1805883a 	mov	r2,r3
 80125a0:	2000071e 	bne	r4,zero,80125c0 <__srefill_r+0x54>
 80125a4:	81001917 	ldw	r4,100(r16)
 80125a8:	18880014 	ori	r2,r3,8192
 80125ac:	00f7ffc4 	movi	r3,-8193
 80125b0:	20c8703a 	and	r4,r4,r3
 80125b4:	8080030d 	sth	r2,12(r16)
 80125b8:	1007883a 	mov	r3,r2
 80125bc:	81001915 	stw	r4,100(r16)
 80125c0:	80000115 	stw	zero,4(r16)
 80125c4:	1100080c 	andi	r4,r2,32
 80125c8:	2000571e 	bne	r4,zero,8012728 <__srefill_r+0x1bc>
 80125cc:	1100010c 	andi	r4,r2,4
 80125d0:	20001f26 	beq	r4,zero,8012650 <__srefill_r+0xe4>
 80125d4:	81400c17 	ldw	r5,48(r16)
 80125d8:	28000826 	beq	r5,zero,80125fc <__srefill_r+0x90>
 80125dc:	80801004 	addi	r2,r16,64
 80125e0:	28800226 	beq	r5,r2,80125ec <__srefill_r+0x80>
 80125e4:	8809883a 	mov	r4,r17
 80125e8:	8010ecc0 	call	8010ecc <_free_r>
 80125ec:	80800f17 	ldw	r2,60(r16)
 80125f0:	80000c15 	stw	zero,48(r16)
 80125f4:	80800115 	stw	r2,4(r16)
 80125f8:	1000391e 	bne	r2,zero,80126e0 <__srefill_r+0x174>
 80125fc:	80800417 	ldw	r2,16(r16)
 8012600:	10004b26 	beq	r2,zero,8012730 <__srefill_r+0x1c4>
 8012604:	8480030b 	ldhu	r18,12(r16)
 8012608:	908000cc 	andi	r2,r18,3
 801260c:	10001f1e 	bne	r2,zero,801268c <__srefill_r+0x120>
 8012610:	81800417 	ldw	r6,16(r16)
 8012614:	80800817 	ldw	r2,32(r16)
 8012618:	81c00517 	ldw	r7,20(r16)
 801261c:	81400717 	ldw	r5,28(r16)
 8012620:	81800015 	stw	r6,0(r16)
 8012624:	8809883a 	mov	r4,r17
 8012628:	103ee83a 	callr	r2
 801262c:	80800115 	stw	r2,4(r16)
 8012630:	00800e0e 	bge	zero,r2,801266c <__srefill_r+0x100>
 8012634:	0005883a 	mov	r2,zero
 8012638:	dfc00317 	ldw	ra,12(sp)
 801263c:	dc800217 	ldw	r18,8(sp)
 8012640:	dc400117 	ldw	r17,4(sp)
 8012644:	dc000017 	ldw	r16,0(sp)
 8012648:	dec00404 	addi	sp,sp,16
 801264c:	f800283a 	ret
 8012650:	1100040c 	andi	r4,r2,16
 8012654:	20003026 	beq	r4,zero,8012718 <__srefill_r+0x1ac>
 8012658:	1080020c 	andi	r2,r2,8
 801265c:	1000241e 	bne	r2,zero,80126f0 <__srefill_r+0x184>
 8012660:	18c00114 	ori	r3,r3,4
 8012664:	80c0030d 	sth	r3,12(r16)
 8012668:	003fe406 	br	80125fc <_gp+0xfffed5f4>
 801266c:	80c0030b 	ldhu	r3,12(r16)
 8012670:	1000161e 	bne	r2,zero,80126cc <__srefill_r+0x160>
 8012674:	18c00814 	ori	r3,r3,32
 8012678:	00bfffc4 	movi	r2,-1
 801267c:	80c0030d 	sth	r3,12(r16)
 8012680:	003fed06 	br	8012638 <_gp+0xfffed630>
 8012684:	8010c4c0 	call	8010c4c <__sinit>
 8012688:	003fc206 	br	8012594 <_gp+0xfffed58c>
 801268c:	008200b4 	movhi	r2,2050
 8012690:	10b40204 	addi	r2,r2,-12280
 8012694:	11000017 	ldw	r4,0(r2)
 8012698:	01420074 	movhi	r5,2049
 801269c:	00800044 	movi	r2,1
 80126a0:	29495404 	addi	r5,r5,9552
 80126a4:	8080030d 	sth	r2,12(r16)
 80126a8:	80116b80 	call	80116b8 <_fwalk>
 80126ac:	00800244 	movi	r2,9
 80126b0:	8480030d 	sth	r18,12(r16)
 80126b4:	9480024c 	andi	r18,r18,9
 80126b8:	90bfd51e 	bne	r18,r2,8012610 <_gp+0xfffed608>
 80126bc:	800b883a 	mov	r5,r16
 80126c0:	8809883a 	mov	r4,r17
 80126c4:	80106440 	call	8010644 <__sflush_r>
 80126c8:	003fd106 	br	8012610 <_gp+0xfffed608>
 80126cc:	18c01014 	ori	r3,r3,64
 80126d0:	80000115 	stw	zero,4(r16)
 80126d4:	00bfffc4 	movi	r2,-1
 80126d8:	80c0030d 	sth	r3,12(r16)
 80126dc:	003fd606 	br	8012638 <_gp+0xfffed630>
 80126e0:	80c00e17 	ldw	r3,56(r16)
 80126e4:	0005883a 	mov	r2,zero
 80126e8:	80c00015 	stw	r3,0(r16)
 80126ec:	003fd206 	br	8012638 <_gp+0xfffed630>
 80126f0:	800b883a 	mov	r5,r16
 80126f4:	8809883a 	mov	r4,r17
 80126f8:	80108600 	call	8010860 <_fflush_r>
 80126fc:	10000a1e 	bne	r2,zero,8012728 <__srefill_r+0x1bc>
 8012700:	8080030b 	ldhu	r2,12(r16)
 8012704:	00fffdc4 	movi	r3,-9
 8012708:	80000215 	stw	zero,8(r16)
 801270c:	1886703a 	and	r3,r3,r2
 8012710:	80000615 	stw	zero,24(r16)
 8012714:	003fd206 	br	8012660 <_gp+0xfffed658>
 8012718:	00800244 	movi	r2,9
 801271c:	88800015 	stw	r2,0(r17)
 8012720:	18c01014 	ori	r3,r3,64
 8012724:	80c0030d 	sth	r3,12(r16)
 8012728:	00bfffc4 	movi	r2,-1
 801272c:	003fc206 	br	8012638 <_gp+0xfffed630>
 8012730:	800b883a 	mov	r5,r16
 8012734:	8809883a 	mov	r4,r17
 8012738:	80118b80 	call	80118b8 <__smakebuf_r>
 801273c:	003fb106 	br	8012604 <_gp+0xfffed5fc>

08012740 <_sbrk_r>:
 8012740:	defffd04 	addi	sp,sp,-12
 8012744:	dc000015 	stw	r16,0(sp)
 8012748:	040200b4 	movhi	r16,2050
 801274c:	dc400115 	stw	r17,4(sp)
 8012750:	843ae604 	addi	r16,r16,-5224
 8012754:	2023883a 	mov	r17,r4
 8012758:	2809883a 	mov	r4,r5
 801275c:	dfc00215 	stw	ra,8(sp)
 8012760:	80000015 	stw	zero,0(r16)
 8012764:	80149180 	call	8014918 <sbrk>
 8012768:	00ffffc4 	movi	r3,-1
 801276c:	10c00526 	beq	r2,r3,8012784 <_sbrk_r+0x44>
 8012770:	dfc00217 	ldw	ra,8(sp)
 8012774:	dc400117 	ldw	r17,4(sp)
 8012778:	dc000017 	ldw	r16,0(sp)
 801277c:	dec00304 	addi	sp,sp,12
 8012780:	f800283a 	ret
 8012784:	80c00017 	ldw	r3,0(r16)
 8012788:	183ff926 	beq	r3,zero,8012770 <_gp+0xfffed768>
 801278c:	88c00015 	stw	r3,0(r17)
 8012790:	003ff706 	br	8012770 <_gp+0xfffed768>

08012794 <__sread>:
 8012794:	defffe04 	addi	sp,sp,-8
 8012798:	dc000015 	stw	r16,0(sp)
 801279c:	2821883a 	mov	r16,r5
 80127a0:	2940038f 	ldh	r5,14(r5)
 80127a4:	dfc00115 	stw	ra,4(sp)
 80127a8:	80132540 	call	8013254 <_read_r>
 80127ac:	10000716 	blt	r2,zero,80127cc <__sread+0x38>
 80127b0:	80c01417 	ldw	r3,80(r16)
 80127b4:	1887883a 	add	r3,r3,r2
 80127b8:	80c01415 	stw	r3,80(r16)
 80127bc:	dfc00117 	ldw	ra,4(sp)
 80127c0:	dc000017 	ldw	r16,0(sp)
 80127c4:	dec00204 	addi	sp,sp,8
 80127c8:	f800283a 	ret
 80127cc:	80c0030b 	ldhu	r3,12(r16)
 80127d0:	18fbffcc 	andi	r3,r3,61439
 80127d4:	80c0030d 	sth	r3,12(r16)
 80127d8:	dfc00117 	ldw	ra,4(sp)
 80127dc:	dc000017 	ldw	r16,0(sp)
 80127e0:	dec00204 	addi	sp,sp,8
 80127e4:	f800283a 	ret

080127e8 <__seofread>:
 80127e8:	0005883a 	mov	r2,zero
 80127ec:	f800283a 	ret

080127f0 <__swrite>:
 80127f0:	2880030b 	ldhu	r2,12(r5)
 80127f4:	defffb04 	addi	sp,sp,-20
 80127f8:	dcc00315 	stw	r19,12(sp)
 80127fc:	dc800215 	stw	r18,8(sp)
 8012800:	dc400115 	stw	r17,4(sp)
 8012804:	dc000015 	stw	r16,0(sp)
 8012808:	dfc00415 	stw	ra,16(sp)
 801280c:	10c0400c 	andi	r3,r2,256
 8012810:	2821883a 	mov	r16,r5
 8012814:	2023883a 	mov	r17,r4
 8012818:	3025883a 	mov	r18,r6
 801281c:	3827883a 	mov	r19,r7
 8012820:	18000526 	beq	r3,zero,8012838 <__swrite+0x48>
 8012824:	2940038f 	ldh	r5,14(r5)
 8012828:	01c00084 	movi	r7,2
 801282c:	000d883a 	mov	r6,zero
 8012830:	80131f40 	call	80131f4 <_lseek_r>
 8012834:	8080030b 	ldhu	r2,12(r16)
 8012838:	8140038f 	ldh	r5,14(r16)
 801283c:	10bbffcc 	andi	r2,r2,61439
 8012840:	980f883a 	mov	r7,r19
 8012844:	900d883a 	mov	r6,r18
 8012848:	8809883a 	mov	r4,r17
 801284c:	8080030d 	sth	r2,12(r16)
 8012850:	dfc00417 	ldw	ra,16(sp)
 8012854:	dcc00317 	ldw	r19,12(sp)
 8012858:	dc800217 	ldw	r18,8(sp)
 801285c:	dc400117 	ldw	r17,4(sp)
 8012860:	dc000017 	ldw	r16,0(sp)
 8012864:	dec00504 	addi	sp,sp,20
 8012868:	8012d5c1 	jmpi	8012d5c <_write_r>

0801286c <__sseek>:
 801286c:	defffe04 	addi	sp,sp,-8
 8012870:	dc000015 	stw	r16,0(sp)
 8012874:	2821883a 	mov	r16,r5
 8012878:	2940038f 	ldh	r5,14(r5)
 801287c:	dfc00115 	stw	ra,4(sp)
 8012880:	80131f40 	call	80131f4 <_lseek_r>
 8012884:	00ffffc4 	movi	r3,-1
 8012888:	10c00826 	beq	r2,r3,80128ac <__sseek+0x40>
 801288c:	80c0030b 	ldhu	r3,12(r16)
 8012890:	80801415 	stw	r2,80(r16)
 8012894:	18c40014 	ori	r3,r3,4096
 8012898:	80c0030d 	sth	r3,12(r16)
 801289c:	dfc00117 	ldw	ra,4(sp)
 80128a0:	dc000017 	ldw	r16,0(sp)
 80128a4:	dec00204 	addi	sp,sp,8
 80128a8:	f800283a 	ret
 80128ac:	80c0030b 	ldhu	r3,12(r16)
 80128b0:	18fbffcc 	andi	r3,r3,61439
 80128b4:	80c0030d 	sth	r3,12(r16)
 80128b8:	dfc00117 	ldw	ra,4(sp)
 80128bc:	dc000017 	ldw	r16,0(sp)
 80128c0:	dec00204 	addi	sp,sp,8
 80128c4:	f800283a 	ret

080128c8 <__sclose>:
 80128c8:	2940038f 	ldh	r5,14(r5)
 80128cc:	8012dbc1 	jmpi	8012dbc <_close_r>

080128d0 <strtok>:
 80128d0:	008200b4 	movhi	r2,2050
 80128d4:	10b40304 	addi	r2,r2,-12276
 80128d8:	11800017 	ldw	r6,0(r2)
 80128dc:	01c00044 	movi	r7,1
 80128e0:	31801704 	addi	r6,r6,92
 80128e4:	80128e81 	jmpi	80128e8 <__strtok_r>

080128e8 <__strtok_r>:
 80128e8:	20001f26 	beq	r4,zero,8012968 <__strtok_r+0x80>
 80128ec:	2005883a 	mov	r2,r4
 80128f0:	22400007 	ldb	r9,0(r4)
 80128f4:	2807883a 	mov	r3,r5
 80128f8:	21000044 	addi	r4,r4,1
 80128fc:	00000106 	br	8012904 <__strtok_r+0x1c>
 8012900:	4a001226 	beq	r9,r8,801294c <__strtok_r+0x64>
 8012904:	1a000007 	ldb	r8,0(r3)
 8012908:	18c00044 	addi	r3,r3,1
 801290c:	403ffc1e 	bne	r8,zero,8012900 <_gp+0xfffed8f8>
 8012910:	48001926 	beq	r9,zero,8012978 <__strtok_r+0x90>
 8012914:	22000007 	ldb	r8,0(r4)
 8012918:	2013883a 	mov	r9,r4
 801291c:	21000044 	addi	r4,r4,1
 8012920:	2015883a 	mov	r10,r4
 8012924:	2807883a 	mov	r3,r5
 8012928:	00000106 	br	8012930 <__strtok_r+0x48>
 801292c:	383ff926 	beq	r7,zero,8012914 <_gp+0xfffed90c>
 8012930:	19c00007 	ldb	r7,0(r3)
 8012934:	18c00044 	addi	r3,r3,1
 8012938:	41fffc1e 	bne	r8,r7,801292c <_gp+0xfffed924>
 801293c:	40000726 	beq	r8,zero,801295c <__strtok_r+0x74>
 8012940:	48000005 	stb	zero,0(r9)
 8012944:	32800015 	stw	r10,0(r6)
 8012948:	f800283a 	ret
 801294c:	383fe71e 	bne	r7,zero,80128ec <_gp+0xfffed8e4>
 8012950:	31000015 	stw	r4,0(r6)
 8012954:	10000005 	stb	zero,0(r2)
 8012958:	f800283a 	ret
 801295c:	0015883a 	mov	r10,zero
 8012960:	32800015 	stw	r10,0(r6)
 8012964:	f800283a 	ret
 8012968:	31000017 	ldw	r4,0(r6)
 801296c:	203fdf1e 	bne	r4,zero,80128ec <_gp+0xfffed8e4>
 8012970:	0005883a 	mov	r2,zero
 8012974:	f800283a 	ret
 8012978:	30000015 	stw	zero,0(r6)
 801297c:	0005883a 	mov	r2,zero
 8012980:	f800283a 	ret

08012984 <strtok_r>:
 8012984:	01c00044 	movi	r7,1
 8012988:	80128e81 	jmpi	80128e8 <__strtok_r>

0801298c <_strtol_r>:
 801298c:	008200b4 	movhi	r2,2050
 8012990:	defff204 	addi	sp,sp,-56
 8012994:	10b40604 	addi	r2,r2,-12264
 8012998:	dd800a15 	stw	r22,40(sp)
 801299c:	15800017 	ldw	r22,0(r2)
 80129a0:	df000c15 	stw	fp,48(sp)
 80129a4:	d9000315 	stw	r4,12(sp)
 80129a8:	dfc00d15 	stw	ra,52(sp)
 80129ac:	ddc00b15 	stw	r23,44(sp)
 80129b0:	dd400915 	stw	r21,36(sp)
 80129b4:	dd000815 	stw	r20,32(sp)
 80129b8:	dcc00715 	stw	r19,28(sp)
 80129bc:	dc800615 	stw	r18,24(sp)
 80129c0:	dc400515 	stw	r17,20(sp)
 80129c4:	dc000415 	stw	r16,16(sp)
 80129c8:	d9400215 	stw	r5,8(sp)
 80129cc:	d9800015 	stw	r6,0(sp)
 80129d0:	3839883a 	mov	fp,r7
 80129d4:	2809883a 	mov	r4,r5
 80129d8:	24000003 	ldbu	r16,0(r4)
 80129dc:	24400044 	addi	r17,r4,1
 80129e0:	2007883a 	mov	r3,r4
 80129e4:	b405883a 	add	r2,r22,r16
 80129e8:	10800043 	ldbu	r2,1(r2)
 80129ec:	8809883a 	mov	r4,r17
 80129f0:	1080020c 	andi	r2,r2,8
 80129f4:	103ff81e 	bne	r2,zero,80129d8 <_gp+0xfffed9d0>
 80129f8:	00800b44 	movi	r2,45
 80129fc:	80805526 	beq	r16,r2,8012b54 <_strtol_r+0x1c8>
 8012a00:	00800ac4 	movi	r2,43
 8012a04:	80806026 	beq	r16,r2,8012b88 <_strtol_r+0x1fc>
 8012a08:	0029883a 	mov	r20,zero
 8012a0c:	e0004726 	beq	fp,zero,8012b2c <_strtol_r+0x1a0>
 8012a10:	00800404 	movi	r2,16
 8012a14:	e0806626 	beq	fp,r2,8012bb0 <_strtol_r+0x224>
 8012a18:	e027883a 	mov	r19,fp
 8012a1c:	00a00034 	movhi	r2,32768
 8012a20:	a025003a 	cmpeq	r18,r20,zero
 8012a24:	14a5c83a 	sub	r18,r2,r18
 8012a28:	9009883a 	mov	r4,r18
 8012a2c:	980b883a 	mov	r5,r19
 8012a30:	8013be00 	call	8013be0 <__umodsi3>
 8012a34:	9009883a 	mov	r4,r18
 8012a38:	980b883a 	mov	r5,r19
 8012a3c:	d8800115 	stw	r2,4(sp)
 8012a40:	8013b7c0 	call	8013b7c <__udivsi3>
 8012a44:	b407883a 	add	r3,r22,r16
 8012a48:	18c00043 	ldbu	r3,1(r3)
 8012a4c:	102b883a 	mov	r21,r2
 8012a50:	0009883a 	mov	r4,zero
 8012a54:	1940010c 	andi	r5,r3,4
 8012a58:	0005883a 	mov	r2,zero
 8012a5c:	04800044 	movi	r18,1
 8012a60:	05ffffc4 	movi	r23,-1
 8012a64:	28000f26 	beq	r5,zero,8012aa4 <_strtol_r+0x118>
 8012a68:	843ff404 	addi	r16,r16,-48
 8012a6c:	8700130e 	bge	r16,fp,8012abc <_strtol_r+0x130>
 8012a70:	15c00626 	beq	r2,r23,8012a8c <_strtol_r+0x100>
 8012a74:	a9002936 	bltu	r21,r4,8012b1c <_strtol_r+0x190>
 8012a78:	25402626 	beq	r4,r21,8012b14 <_strtol_r+0x188>
 8012a7c:	980b883a 	mov	r5,r19
 8012a80:	8013c380 	call	8013c38 <__mulsi3>
 8012a84:	8089883a 	add	r4,r16,r2
 8012a88:	00800044 	movi	r2,1
 8012a8c:	8c000003 	ldbu	r16,0(r17)
 8012a90:	8c400044 	addi	r17,r17,1
 8012a94:	b407883a 	add	r3,r22,r16
 8012a98:	18c00043 	ldbu	r3,1(r3)
 8012a9c:	1940010c 	andi	r5,r3,4
 8012aa0:	283ff11e 	bne	r5,zero,8012a68 <_gp+0xfffeda60>
 8012aa4:	18c000cc 	andi	r3,r3,3
 8012aa8:	18000426 	beq	r3,zero,8012abc <_strtol_r+0x130>
 8012aac:	1c801d26 	beq	r3,r18,8012b24 <_strtol_r+0x198>
 8012ab0:	00c015c4 	movi	r3,87
 8012ab4:	80e1c83a 	sub	r16,r16,r3
 8012ab8:	873fed16 	blt	r16,fp,8012a70 <_gp+0xfffeda68>
 8012abc:	00ffffc4 	movi	r3,-1
 8012ac0:	10c02826 	beq	r2,r3,8012b64 <_strtol_r+0x1d8>
 8012ac4:	a0001e1e 	bne	r20,zero,8012b40 <_strtol_r+0x1b4>
 8012ac8:	d8c00017 	ldw	r3,0(sp)
 8012acc:	18004326 	beq	r3,zero,8012bdc <_strtol_r+0x250>
 8012ad0:	10001d1e 	bne	r2,zero,8012b48 <_strtol_r+0x1bc>
 8012ad4:	dd800217 	ldw	r22,8(sp)
 8012ad8:	2005883a 	mov	r2,r4
 8012adc:	d8c00017 	ldw	r3,0(sp)
 8012ae0:	1d800015 	stw	r22,0(r3)
 8012ae4:	dfc00d17 	ldw	ra,52(sp)
 8012ae8:	df000c17 	ldw	fp,48(sp)
 8012aec:	ddc00b17 	ldw	r23,44(sp)
 8012af0:	dd800a17 	ldw	r22,40(sp)
 8012af4:	dd400917 	ldw	r21,36(sp)
 8012af8:	dd000817 	ldw	r20,32(sp)
 8012afc:	dcc00717 	ldw	r19,28(sp)
 8012b00:	dc800617 	ldw	r18,24(sp)
 8012b04:	dc400517 	ldw	r17,20(sp)
 8012b08:	dc000417 	ldw	r16,16(sp)
 8012b0c:	dec00e04 	addi	sp,sp,56
 8012b10:	f800283a 	ret
 8012b14:	d8c00117 	ldw	r3,4(sp)
 8012b18:	1c3fd80e 	bge	r3,r16,8012a7c <_gp+0xfffeda74>
 8012b1c:	00bfffc4 	movi	r2,-1
 8012b20:	003fda06 	br	8012a8c <_gp+0xfffeda84>
 8012b24:	00c00dc4 	movi	r3,55
 8012b28:	003fe206 	br	8012ab4 <_gp+0xfffedaac>
 8012b2c:	00800c04 	movi	r2,48
 8012b30:	80801926 	beq	r16,r2,8012b98 <_strtol_r+0x20c>
 8012b34:	07000284 	movi	fp,10
 8012b38:	e027883a 	mov	r19,fp
 8012b3c:	003fb706 	br	8012a1c <_gp+0xfffeda14>
 8012b40:	0109c83a 	sub	r4,zero,r4
 8012b44:	003fe006 	br	8012ac8 <_gp+0xfffedac0>
 8012b48:	2005883a 	mov	r2,r4
 8012b4c:	8dbfffc4 	addi	r22,r17,-1
 8012b50:	003fe206 	br	8012adc <_gp+0xfffedad4>
 8012b54:	1c400084 	addi	r17,r3,2
 8012b58:	1c000043 	ldbu	r16,1(r3)
 8012b5c:	05000044 	movi	r20,1
 8012b60:	003faa06 	br	8012a0c <_gp+0xfffeda04>
 8012b64:	d9000317 	ldw	r4,12(sp)
 8012b68:	00c00884 	movi	r3,34
 8012b6c:	a005003a 	cmpeq	r2,r20,zero
 8012b70:	20c00015 	stw	r3,0(r4)
 8012b74:	00e00034 	movhi	r3,32768
 8012b78:	1885c83a 	sub	r2,r3,r2
 8012b7c:	d8c00017 	ldw	r3,0(sp)
 8012b80:	183ff21e 	bne	r3,zero,8012b4c <_gp+0xfffedb44>
 8012b84:	003fd706 	br	8012ae4 <_gp+0xfffedadc>
 8012b88:	1c400084 	addi	r17,r3,2
 8012b8c:	1c000043 	ldbu	r16,1(r3)
 8012b90:	0029883a 	mov	r20,zero
 8012b94:	003f9d06 	br	8012a0c <_gp+0xfffeda04>
 8012b98:	88800003 	ldbu	r2,0(r17)
 8012b9c:	00c01604 	movi	r3,88
 8012ba0:	108037cc 	andi	r2,r2,223
 8012ba4:	10c00826 	beq	r2,r3,8012bc8 <_strtol_r+0x23c>
 8012ba8:	07000204 	movi	fp,8
 8012bac:	003f9a06 	br	8012a18 <_gp+0xfffeda10>
 8012bb0:	00800c04 	movi	r2,48
 8012bb4:	80bf981e 	bne	r16,r2,8012a18 <_gp+0xfffeda10>
 8012bb8:	88800003 	ldbu	r2,0(r17)
 8012bbc:	00c01604 	movi	r3,88
 8012bc0:	108037cc 	andi	r2,r2,223
 8012bc4:	10ff941e 	bne	r2,r3,8012a18 <_gp+0xfffeda10>
 8012bc8:	04c00404 	movi	r19,16
 8012bcc:	8c000043 	ldbu	r16,1(r17)
 8012bd0:	9839883a 	mov	fp,r19
 8012bd4:	8c400084 	addi	r17,r17,2
 8012bd8:	003f9006 	br	8012a1c <_gp+0xfffeda14>
 8012bdc:	2005883a 	mov	r2,r4
 8012be0:	003fc006 	br	8012ae4 <_gp+0xfffedadc>

08012be4 <strtol>:
 8012be4:	008200b4 	movhi	r2,2050
 8012be8:	10b40304 	addi	r2,r2,-12276
 8012bec:	300f883a 	mov	r7,r6
 8012bf0:	280d883a 	mov	r6,r5
 8012bf4:	200b883a 	mov	r5,r4
 8012bf8:	11000017 	ldw	r4,0(r2)
 8012bfc:	801298c1 	jmpi	801298c <_strtol_r>

08012c00 <__utoa>:
 8012c00:	008cccb4 	movhi	r2,13106
 8012c04:	defff004 	addi	sp,sp,-64
 8012c08:	108c4c04 	addi	r2,r2,12592
 8012c0c:	d8800015 	stw	r2,0(sp)
 8012c10:	008dcdb4 	movhi	r2,14134
 8012c14:	108d4d04 	addi	r2,r2,13620
 8012c18:	d8800115 	stw	r2,4(sp)
 8012c1c:	00989874 	movhi	r2,25185
 8012c20:	108e4e04 	addi	r2,r2,14648
 8012c24:	d8800215 	stw	r2,8(sp)
 8012c28:	00999974 	movhi	r2,26213
 8012c2c:	109918c4 	addi	r2,r2,25699
 8012c30:	d8800315 	stw	r2,12(sp)
 8012c34:	009a9a74 	movhi	r2,27241
 8012c38:	109a19c4 	addi	r2,r2,26727
 8012c3c:	d8800415 	stw	r2,16(sp)
 8012c40:	009b9b74 	movhi	r2,28269
 8012c44:	109b1ac4 	addi	r2,r2,27755
 8012c48:	d8800515 	stw	r2,20(sp)
 8012c4c:	009c9c74 	movhi	r2,29297
 8012c50:	109c1bc4 	addi	r2,r2,28783
 8012c54:	d8800615 	stw	r2,24(sp)
 8012c58:	009d9d74 	movhi	r2,30325
 8012c5c:	109d1cc4 	addi	r2,r2,29811
 8012c60:	d8800715 	stw	r2,28(sp)
 8012c64:	009e9e74 	movhi	r2,31353
 8012c68:	109e1dc4 	addi	r2,r2,30839
 8012c6c:	dd000e15 	stw	r20,56(sp)
 8012c70:	d8800815 	stw	r2,32(sp)
 8012c74:	dfc00f15 	stw	ra,60(sp)
 8012c78:	dcc00d15 	stw	r19,52(sp)
 8012c7c:	dc800c15 	stw	r18,48(sp)
 8012c80:	dc400b15 	stw	r17,44(sp)
 8012c84:	dc000a15 	stw	r16,40(sp)
 8012c88:	d8000905 	stb	zero,36(sp)
 8012c8c:	30bfff84 	addi	r2,r6,-2
 8012c90:	00c00884 	movi	r3,34
 8012c94:	2829883a 	mov	r20,r5
 8012c98:	18802c36 	bltu	r3,r2,8012d4c <__utoa+0x14c>
 8012c9c:	3027883a 	mov	r19,r6
 8012ca0:	2023883a 	mov	r17,r4
 8012ca4:	2825883a 	mov	r18,r5
 8012ca8:	0021883a 	mov	r16,zero
 8012cac:	00000106 	br	8012cb4 <__utoa+0xb4>
 8012cb0:	1821883a 	mov	r16,r3
 8012cb4:	8809883a 	mov	r4,r17
 8012cb8:	980b883a 	mov	r5,r19
 8012cbc:	8013be00 	call	8013be0 <__umodsi3>
 8012cc0:	d885883a 	add	r2,sp,r2
 8012cc4:	10800003 	ldbu	r2,0(r2)
 8012cc8:	8809883a 	mov	r4,r17
 8012ccc:	980b883a 	mov	r5,r19
 8012cd0:	90800005 	stb	r2,0(r18)
 8012cd4:	8013b7c0 	call	8013b7c <__udivsi3>
 8012cd8:	1023883a 	mov	r17,r2
 8012cdc:	80c00044 	addi	r3,r16,1
 8012ce0:	94800044 	addi	r18,r18,1
 8012ce4:	103ff21e 	bne	r2,zero,8012cb0 <_gp+0xfffedca8>
 8012ce8:	a0c7883a 	add	r3,r20,r3
 8012cec:	18000005 	stb	zero,0(r3)
 8012cf0:	80000d26 	beq	r16,zero,8012d28 <__utoa+0x128>
 8012cf4:	01c00044 	movi	r7,1
 8012cf8:	a409883a 	add	r4,r20,r16
 8012cfc:	a007883a 	mov	r3,r20
 8012d00:	3d0fc83a 	sub	r7,r7,r20
 8012d04:	21800003 	ldbu	r6,0(r4)
 8012d08:	19400003 	ldbu	r5,0(r3)
 8012d0c:	38c5883a 	add	r2,r7,r3
 8012d10:	19800005 	stb	r6,0(r3)
 8012d14:	21400005 	stb	r5,0(r4)
 8012d18:	843fffc4 	addi	r16,r16,-1
 8012d1c:	18c00044 	addi	r3,r3,1
 8012d20:	213fffc4 	addi	r4,r4,-1
 8012d24:	143ff716 	blt	r2,r16,8012d04 <_gp+0xfffedcfc>
 8012d28:	a005883a 	mov	r2,r20
 8012d2c:	dfc00f17 	ldw	ra,60(sp)
 8012d30:	dd000e17 	ldw	r20,56(sp)
 8012d34:	dcc00d17 	ldw	r19,52(sp)
 8012d38:	dc800c17 	ldw	r18,48(sp)
 8012d3c:	dc400b17 	ldw	r17,44(sp)
 8012d40:	dc000a17 	ldw	r16,40(sp)
 8012d44:	dec01004 	addi	sp,sp,64
 8012d48:	f800283a 	ret
 8012d4c:	28000005 	stb	zero,0(r5)
 8012d50:	0005883a 	mov	r2,zero
 8012d54:	003ff506 	br	8012d2c <_gp+0xfffedd24>

08012d58 <utoa>:
 8012d58:	8012c001 	jmpi	8012c00 <__utoa>

08012d5c <_write_r>:
 8012d5c:	defffd04 	addi	sp,sp,-12
 8012d60:	2805883a 	mov	r2,r5
 8012d64:	dc000015 	stw	r16,0(sp)
 8012d68:	040200b4 	movhi	r16,2050
 8012d6c:	dc400115 	stw	r17,4(sp)
 8012d70:	300b883a 	mov	r5,r6
 8012d74:	843ae604 	addi	r16,r16,-5224
 8012d78:	2023883a 	mov	r17,r4
 8012d7c:	380d883a 	mov	r6,r7
 8012d80:	1009883a 	mov	r4,r2
 8012d84:	dfc00215 	stw	ra,8(sp)
 8012d88:	80000015 	stw	zero,0(r16)
 8012d8c:	8014a040 	call	8014a04 <write>
 8012d90:	00ffffc4 	movi	r3,-1
 8012d94:	10c00526 	beq	r2,r3,8012dac <_write_r+0x50>
 8012d98:	dfc00217 	ldw	ra,8(sp)
 8012d9c:	dc400117 	ldw	r17,4(sp)
 8012da0:	dc000017 	ldw	r16,0(sp)
 8012da4:	dec00304 	addi	sp,sp,12
 8012da8:	f800283a 	ret
 8012dac:	80c00017 	ldw	r3,0(r16)
 8012db0:	183ff926 	beq	r3,zero,8012d98 <_gp+0xfffedd90>
 8012db4:	88c00015 	stw	r3,0(r17)
 8012db8:	003ff706 	br	8012d98 <_gp+0xfffedd90>

08012dbc <_close_r>:
 8012dbc:	defffd04 	addi	sp,sp,-12
 8012dc0:	dc000015 	stw	r16,0(sp)
 8012dc4:	040200b4 	movhi	r16,2050
 8012dc8:	dc400115 	stw	r17,4(sp)
 8012dcc:	843ae604 	addi	r16,r16,-5224
 8012dd0:	2023883a 	mov	r17,r4
 8012dd4:	2809883a 	mov	r4,r5
 8012dd8:	dfc00215 	stw	ra,8(sp)
 8012ddc:	80000015 	stw	zero,0(r16)
 8012de0:	8013c9c0 	call	8013c9c <close>
 8012de4:	00ffffc4 	movi	r3,-1
 8012de8:	10c00526 	beq	r2,r3,8012e00 <_close_r+0x44>
 8012dec:	dfc00217 	ldw	ra,8(sp)
 8012df0:	dc400117 	ldw	r17,4(sp)
 8012df4:	dc000017 	ldw	r16,0(sp)
 8012df8:	dec00304 	addi	sp,sp,12
 8012dfc:	f800283a 	ret
 8012e00:	80c00017 	ldw	r3,0(r16)
 8012e04:	183ff926 	beq	r3,zero,8012dec <_gp+0xfffedde4>
 8012e08:	88c00015 	stw	r3,0(r17)
 8012e0c:	003ff706 	br	8012dec <_gp+0xfffedde4>

08012e10 <__call_exitprocs>:
 8012e10:	defff504 	addi	sp,sp,-44
 8012e14:	df000915 	stw	fp,36(sp)
 8012e18:	dd400615 	stw	r21,24(sp)
 8012e1c:	dc800315 	stw	r18,12(sp)
 8012e20:	dfc00a15 	stw	ra,40(sp)
 8012e24:	ddc00815 	stw	r23,32(sp)
 8012e28:	dd800715 	stw	r22,28(sp)
 8012e2c:	dd000515 	stw	r20,20(sp)
 8012e30:	dcc00415 	stw	r19,16(sp)
 8012e34:	dc400215 	stw	r17,8(sp)
 8012e38:	dc000115 	stw	r16,4(sp)
 8012e3c:	d9000015 	stw	r4,0(sp)
 8012e40:	2839883a 	mov	fp,r5
 8012e44:	04800044 	movi	r18,1
 8012e48:	057fffc4 	movi	r21,-1
 8012e4c:	008200b4 	movhi	r2,2050
 8012e50:	10b40204 	addi	r2,r2,-12280
 8012e54:	12000017 	ldw	r8,0(r2)
 8012e58:	45005217 	ldw	r20,328(r8)
 8012e5c:	44c05204 	addi	r19,r8,328
 8012e60:	a0001c26 	beq	r20,zero,8012ed4 <__call_exitprocs+0xc4>
 8012e64:	a0800117 	ldw	r2,4(r20)
 8012e68:	15ffffc4 	addi	r23,r2,-1
 8012e6c:	b8000d16 	blt	r23,zero,8012ea4 <__call_exitprocs+0x94>
 8012e70:	14000044 	addi	r16,r2,1
 8012e74:	8421883a 	add	r16,r16,r16
 8012e78:	8421883a 	add	r16,r16,r16
 8012e7c:	84402004 	addi	r17,r16,128
 8012e80:	a463883a 	add	r17,r20,r17
 8012e84:	a421883a 	add	r16,r20,r16
 8012e88:	e0001e26 	beq	fp,zero,8012f04 <__call_exitprocs+0xf4>
 8012e8c:	80804017 	ldw	r2,256(r16)
 8012e90:	e0801c26 	beq	fp,r2,8012f04 <__call_exitprocs+0xf4>
 8012e94:	bdffffc4 	addi	r23,r23,-1
 8012e98:	843fff04 	addi	r16,r16,-4
 8012e9c:	8c7fff04 	addi	r17,r17,-4
 8012ea0:	bd7ff91e 	bne	r23,r21,8012e88 <_gp+0xfffede80>
 8012ea4:	00800034 	movhi	r2,0
 8012ea8:	10800004 	addi	r2,r2,0
 8012eac:	10000926 	beq	r2,zero,8012ed4 <__call_exitprocs+0xc4>
 8012eb0:	a0800117 	ldw	r2,4(r20)
 8012eb4:	1000301e 	bne	r2,zero,8012f78 <__call_exitprocs+0x168>
 8012eb8:	a0800017 	ldw	r2,0(r20)
 8012ebc:	10003226 	beq	r2,zero,8012f88 <__call_exitprocs+0x178>
 8012ec0:	a009883a 	mov	r4,r20
 8012ec4:	98800015 	stw	r2,0(r19)
 8012ec8:	00000000 	call	0 <__alt_mem_sdram-0x4000000>
 8012ecc:	9d000017 	ldw	r20,0(r19)
 8012ed0:	a03fe41e 	bne	r20,zero,8012e64 <_gp+0xfffede5c>
 8012ed4:	dfc00a17 	ldw	ra,40(sp)
 8012ed8:	df000917 	ldw	fp,36(sp)
 8012edc:	ddc00817 	ldw	r23,32(sp)
 8012ee0:	dd800717 	ldw	r22,28(sp)
 8012ee4:	dd400617 	ldw	r21,24(sp)
 8012ee8:	dd000517 	ldw	r20,20(sp)
 8012eec:	dcc00417 	ldw	r19,16(sp)
 8012ef0:	dc800317 	ldw	r18,12(sp)
 8012ef4:	dc400217 	ldw	r17,8(sp)
 8012ef8:	dc000117 	ldw	r16,4(sp)
 8012efc:	dec00b04 	addi	sp,sp,44
 8012f00:	f800283a 	ret
 8012f04:	a0800117 	ldw	r2,4(r20)
 8012f08:	80c00017 	ldw	r3,0(r16)
 8012f0c:	10bfffc4 	addi	r2,r2,-1
 8012f10:	15c01426 	beq	r2,r23,8012f64 <__call_exitprocs+0x154>
 8012f14:	80000015 	stw	zero,0(r16)
 8012f18:	183fde26 	beq	r3,zero,8012e94 <_gp+0xfffede8c>
 8012f1c:	95c8983a 	sll	r4,r18,r23
 8012f20:	a0806217 	ldw	r2,392(r20)
 8012f24:	a5800117 	ldw	r22,4(r20)
 8012f28:	2084703a 	and	r2,r4,r2
 8012f2c:	10000b26 	beq	r2,zero,8012f5c <__call_exitprocs+0x14c>
 8012f30:	a0806317 	ldw	r2,396(r20)
 8012f34:	2088703a 	and	r4,r4,r2
 8012f38:	20000c1e 	bne	r4,zero,8012f6c <__call_exitprocs+0x15c>
 8012f3c:	89400017 	ldw	r5,0(r17)
 8012f40:	d9000017 	ldw	r4,0(sp)
 8012f44:	183ee83a 	callr	r3
 8012f48:	a0800117 	ldw	r2,4(r20)
 8012f4c:	15bfbf1e 	bne	r2,r22,8012e4c <_gp+0xfffede44>
 8012f50:	98800017 	ldw	r2,0(r19)
 8012f54:	153fcf26 	beq	r2,r20,8012e94 <_gp+0xfffede8c>
 8012f58:	003fbc06 	br	8012e4c <_gp+0xfffede44>
 8012f5c:	183ee83a 	callr	r3
 8012f60:	003ff906 	br	8012f48 <_gp+0xfffedf40>
 8012f64:	a5c00115 	stw	r23,4(r20)
 8012f68:	003feb06 	br	8012f18 <_gp+0xfffedf10>
 8012f6c:	89000017 	ldw	r4,0(r17)
 8012f70:	183ee83a 	callr	r3
 8012f74:	003ff406 	br	8012f48 <_gp+0xfffedf40>
 8012f78:	a0800017 	ldw	r2,0(r20)
 8012f7c:	a027883a 	mov	r19,r20
 8012f80:	1029883a 	mov	r20,r2
 8012f84:	003fb606 	br	8012e60 <_gp+0xfffede58>
 8012f88:	0005883a 	mov	r2,zero
 8012f8c:	003ffb06 	br	8012f7c <_gp+0xfffedf74>

08012f90 <__sflags>:
 8012f90:	28800007 	ldb	r2,0(r5)
 8012f94:	00c01c84 	movi	r3,114
 8012f98:	10c02426 	beq	r2,r3,801302c <__sflags+0x9c>
 8012f9c:	00c01dc4 	movi	r3,119
 8012fa0:	10c01e26 	beq	r2,r3,801301c <__sflags+0x8c>
 8012fa4:	00c01844 	movi	r3,97
 8012fa8:	10c00426 	beq	r2,r3,8012fbc <__sflags+0x2c>
 8012fac:	00800584 	movi	r2,22
 8012fb0:	20800015 	stw	r2,0(r4)
 8012fb4:	0005883a 	mov	r2,zero
 8012fb8:	f800283a 	ret
 8012fbc:	02c08204 	movi	r11,520
 8012fc0:	01000044 	movi	r4,1
 8012fc4:	00804204 	movi	r2,264
 8012fc8:	01c00ac4 	movi	r7,43
 8012fcc:	02bff8c4 	movi	r10,-29
 8012fd0:	027fff04 	movi	r9,-4
 8012fd4:	02001e04 	movi	r8,120
 8012fd8:	29400044 	addi	r5,r5,1
 8012fdc:	28c00007 	ldb	r3,0(r5)
 8012fe0:	18000626 	beq	r3,zero,8012ffc <__sflags+0x6c>
 8012fe4:	19c00826 	beq	r3,r7,8013008 <__sflags+0x78>
 8012fe8:	1a3ffb1e 	bne	r3,r8,8012fd8 <_gp+0xfffedfd0>
 8012fec:	29400044 	addi	r5,r5,1
 8012ff0:	28c00007 	ldb	r3,0(r5)
 8012ff4:	21020014 	ori	r4,r4,2048
 8012ff8:	183ffa1e 	bne	r3,zero,8012fe4 <_gp+0xfffedfdc>
 8012ffc:	22c8b03a 	or	r4,r4,r11
 8013000:	31000015 	stw	r4,0(r6)
 8013004:	f800283a 	ret
 8013008:	1284703a 	and	r2,r2,r10
 801300c:	2248703a 	and	r4,r4,r9
 8013010:	10800414 	ori	r2,r2,16
 8013014:	21000094 	ori	r4,r4,2
 8013018:	003fef06 	br	8012fd8 <_gp+0xfffedfd0>
 801301c:	02c18004 	movi	r11,1536
 8013020:	01000044 	movi	r4,1
 8013024:	00800204 	movi	r2,8
 8013028:	003fe706 	br	8012fc8 <_gp+0xfffedfc0>
 801302c:	0017883a 	mov	r11,zero
 8013030:	0009883a 	mov	r4,zero
 8013034:	00800104 	movi	r2,4
 8013038:	003fe306 	br	8012fc8 <_gp+0xfffedfc0>

0801303c <__getdelim>:
 801303c:	defff604 	addi	sp,sp,-40
 8013040:	dfc00915 	stw	ra,36(sp)
 8013044:	df000815 	stw	fp,32(sp)
 8013048:	ddc00715 	stw	r23,28(sp)
 801304c:	dd800615 	stw	r22,24(sp)
 8013050:	dd400515 	stw	r21,20(sp)
 8013054:	dd000415 	stw	r20,16(sp)
 8013058:	dcc00315 	stw	r19,12(sp)
 801305c:	dc800215 	stw	r18,8(sp)
 8013060:	dc400115 	stw	r17,4(sp)
 8013064:	dc000015 	stw	r16,0(sp)
 8013068:	38004626 	beq	r7,zero,8013184 <__getdelim+0x148>
 801306c:	202d883a 	mov	r22,r4
 8013070:	20004426 	beq	r4,zero,8013184 <__getdelim+0x148>
 8013074:	282b883a 	mov	r21,r5
 8013078:	28004226 	beq	r5,zero,8013184 <__getdelim+0x148>
 801307c:	24000017 	ldw	r16,0(r4)
 8013080:	3823883a 	mov	r17,r7
 8013084:	3027883a 	mov	r19,r6
 8013088:	80002426 	beq	r16,zero,801311c <__getdelim+0xe0>
 801308c:	28800017 	ldw	r2,0(r5)
 8013090:	00c000c4 	movi	r3,3
 8013094:	1880212e 	bgeu	r3,r2,801311c <__getdelim+0xe0>
 8013098:	008200b4 	movhi	r2,2050
 801309c:	10b40304 	addi	r2,r2,-12276
 80130a0:	11000017 	ldw	r4,0(r2)
 80130a4:	20000226 	beq	r4,zero,80130b0 <__getdelim+0x74>
 80130a8:	20800e17 	ldw	r2,56(r4)
 80130ac:	10003326 	beq	r2,zero,801317c <__getdelim+0x140>
 80130b0:	adc00017 	ldw	r23,0(r21)
 80130b4:	8029883a 	mov	r20,r16
 80130b8:	04bfffc4 	movi	r18,-1
 80130bc:	bdffffc4 	addi	r23,r23,-1
 80130c0:	85ef883a 	add	r23,r16,r23
 80130c4:	00000506 	br	80130dc <__getdelim+0xa0>
 80130c8:	80138680 	call	8013868 <getc_unlocked>
 80130cc:	14801c26 	beq	r2,r18,8013140 <__getdelim+0x104>
 80130d0:	e0800005 	stb	r2,0(fp)
 80130d4:	84000044 	addi	r16,r16,1
 80130d8:	14c01926 	beq	r2,r19,8013140 <__getdelim+0x104>
 80130dc:	8809883a 	mov	r4,r17
 80130e0:	8039883a 	mov	fp,r16
 80130e4:	85fff81e 	bne	r16,r23,80130c8 <_gp+0xfffee0c0>
 80130e8:	adc00017 	ldw	r23,0(r21)
 80130ec:	a009883a 	mov	r4,r20
 80130f0:	8539c83a 	sub	fp,r16,r20
 80130f4:	bdef883a 	add	r23,r23,r23
 80130f8:	b80b883a 	mov	r5,r23
 80130fc:	80132b40 	call	80132b4 <realloc>
 8013100:	1029883a 	mov	r20,r2
 8013104:	10000e26 	beq	r2,zero,8013140 <__getdelim+0x104>
 8013108:	b5000015 	stw	r20,0(r22)
 801310c:	adc00015 	stw	r23,0(r21)
 8013110:	a721883a 	add	r16,r20,fp
 8013114:	bf2fc83a 	sub	r23,r23,fp
 8013118:	003fe806 	br	80130bc <_gp+0xfffee0b4>
 801311c:	04802004 	movi	r18,128
 8013120:	8009883a 	mov	r4,r16
 8013124:	900b883a 	mov	r5,r18
 8013128:	80132b40 	call	80132b4 <realloc>
 801312c:	1021883a 	mov	r16,r2
 8013130:	10001926 	beq	r2,zero,8013198 <__getdelim+0x15c>
 8013134:	b0800015 	stw	r2,0(r22)
 8013138:	ac800015 	stw	r18,0(r21)
 801313c:	003fd606 	br	8013098 <_gp+0xfffee090>
 8013140:	a4001526 	beq	r20,r16,8013198 <__getdelim+0x15c>
 8013144:	80000005 	stb	zero,0(r16)
 8013148:	8505c83a 	sub	r2,r16,r20
 801314c:	dfc00917 	ldw	ra,36(sp)
 8013150:	df000817 	ldw	fp,32(sp)
 8013154:	ddc00717 	ldw	r23,28(sp)
 8013158:	dd800617 	ldw	r22,24(sp)
 801315c:	dd400517 	ldw	r21,20(sp)
 8013160:	dd000417 	ldw	r20,16(sp)
 8013164:	dcc00317 	ldw	r19,12(sp)
 8013168:	dc800217 	ldw	r18,8(sp)
 801316c:	dc400117 	ldw	r17,4(sp)
 8013170:	dc000017 	ldw	r16,0(sp)
 8013174:	dec00a04 	addi	sp,sp,40
 8013178:	f800283a 	ret
 801317c:	8010c4c0 	call	8010c4c <__sinit>
 8013180:	003fcb06 	br	80130b0 <_gp+0xfffee0a8>
 8013184:	80138300 	call	8013830 <__errno>
 8013188:	00c00584 	movi	r3,22
 801318c:	10c00015 	stw	r3,0(r2)
 8013190:	00bfffc4 	movi	r2,-1
 8013194:	003fed06 	br	801314c <_gp+0xfffee144>
 8013198:	00bfffc4 	movi	r2,-1
 801319c:	003feb06 	br	801314c <_gp+0xfffee144>

080131a0 <_isatty_r>:
 80131a0:	defffd04 	addi	sp,sp,-12
 80131a4:	dc000015 	stw	r16,0(sp)
 80131a8:	040200b4 	movhi	r16,2050
 80131ac:	dc400115 	stw	r17,4(sp)
 80131b0:	843ae604 	addi	r16,r16,-5224
 80131b4:	2023883a 	mov	r17,r4
 80131b8:	2809883a 	mov	r4,r5
 80131bc:	dfc00215 	stw	ra,8(sp)
 80131c0:	80000015 	stw	zero,0(r16)
 80131c4:	8013f040 	call	8013f04 <isatty>
 80131c8:	00ffffc4 	movi	r3,-1
 80131cc:	10c00526 	beq	r2,r3,80131e4 <_isatty_r+0x44>
 80131d0:	dfc00217 	ldw	ra,8(sp)
 80131d4:	dc400117 	ldw	r17,4(sp)
 80131d8:	dc000017 	ldw	r16,0(sp)
 80131dc:	dec00304 	addi	sp,sp,12
 80131e0:	f800283a 	ret
 80131e4:	80c00017 	ldw	r3,0(r16)
 80131e8:	183ff926 	beq	r3,zero,80131d0 <_gp+0xfffee1c8>
 80131ec:	88c00015 	stw	r3,0(r17)
 80131f0:	003ff706 	br	80131d0 <_gp+0xfffee1c8>

080131f4 <_lseek_r>:
 80131f4:	defffd04 	addi	sp,sp,-12
 80131f8:	2805883a 	mov	r2,r5
 80131fc:	dc000015 	stw	r16,0(sp)
 8013200:	040200b4 	movhi	r16,2050
 8013204:	dc400115 	stw	r17,4(sp)
 8013208:	300b883a 	mov	r5,r6
 801320c:	843ae604 	addi	r16,r16,-5224
 8013210:	2023883a 	mov	r17,r4
 8013214:	380d883a 	mov	r6,r7
 8013218:	1009883a 	mov	r4,r2
 801321c:	dfc00215 	stw	ra,8(sp)
 8013220:	80000015 	stw	zero,0(r16)
 8013224:	80140d80 	call	80140d8 <lseek>
 8013228:	00ffffc4 	movi	r3,-1
 801322c:	10c00526 	beq	r2,r3,8013244 <_lseek_r+0x50>
 8013230:	dfc00217 	ldw	ra,8(sp)
 8013234:	dc400117 	ldw	r17,4(sp)
 8013238:	dc000017 	ldw	r16,0(sp)
 801323c:	dec00304 	addi	sp,sp,12
 8013240:	f800283a 	ret
 8013244:	80c00017 	ldw	r3,0(r16)
 8013248:	183ff926 	beq	r3,zero,8013230 <_gp+0xfffee228>
 801324c:	88c00015 	stw	r3,0(r17)
 8013250:	003ff706 	br	8013230 <_gp+0xfffee228>

08013254 <_read_r>:
 8013254:	defffd04 	addi	sp,sp,-12
 8013258:	2805883a 	mov	r2,r5
 801325c:	dc000015 	stw	r16,0(sp)
 8013260:	040200b4 	movhi	r16,2050
 8013264:	dc400115 	stw	r17,4(sp)
 8013268:	300b883a 	mov	r5,r6
 801326c:	843ae604 	addi	r16,r16,-5224
 8013270:	2023883a 	mov	r17,r4
 8013274:	380d883a 	mov	r6,r7
 8013278:	1009883a 	mov	r4,r2
 801327c:	dfc00215 	stw	ra,8(sp)
 8013280:	80000015 	stw	zero,0(r16)
 8013284:	80147900 	call	8014790 <read>
 8013288:	00ffffc4 	movi	r3,-1
 801328c:	10c00526 	beq	r2,r3,80132a4 <_read_r+0x50>
 8013290:	dfc00217 	ldw	ra,8(sp)
 8013294:	dc400117 	ldw	r17,4(sp)
 8013298:	dc000017 	ldw	r16,0(sp)
 801329c:	dec00304 	addi	sp,sp,12
 80132a0:	f800283a 	ret
 80132a4:	80c00017 	ldw	r3,0(r16)
 80132a8:	183ff926 	beq	r3,zero,8013290 <_gp+0xfffee288>
 80132ac:	88c00015 	stw	r3,0(r17)
 80132b0:	003ff706 	br	8013290 <_gp+0xfffee288>

080132b4 <realloc>:
 80132b4:	008200b4 	movhi	r2,2050
 80132b8:	10b40304 	addi	r2,r2,-12276
 80132bc:	280d883a 	mov	r6,r5
 80132c0:	200b883a 	mov	r5,r4
 80132c4:	11000017 	ldw	r4,0(r2)
 80132c8:	80132cc1 	jmpi	80132cc <_realloc_r>

080132cc <_realloc_r>:
 80132cc:	defff604 	addi	sp,sp,-40
 80132d0:	dc800215 	stw	r18,8(sp)
 80132d4:	dfc00915 	stw	ra,36(sp)
 80132d8:	df000815 	stw	fp,32(sp)
 80132dc:	ddc00715 	stw	r23,28(sp)
 80132e0:	dd800615 	stw	r22,24(sp)
 80132e4:	dd400515 	stw	r21,20(sp)
 80132e8:	dd000415 	stw	r20,16(sp)
 80132ec:	dcc00315 	stw	r19,12(sp)
 80132f0:	dc400115 	stw	r17,4(sp)
 80132f4:	dc000015 	stw	r16,0(sp)
 80132f8:	3025883a 	mov	r18,r6
 80132fc:	2800b726 	beq	r5,zero,80135dc <_realloc_r+0x310>
 8013300:	282b883a 	mov	r21,r5
 8013304:	2029883a 	mov	r20,r4
 8013308:	80142200 	call	8014220 <__malloc_lock>
 801330c:	a8bfff17 	ldw	r2,-4(r21)
 8013310:	043fff04 	movi	r16,-4
 8013314:	90c002c4 	addi	r3,r18,11
 8013318:	01000584 	movi	r4,22
 801331c:	acfffe04 	addi	r19,r21,-8
 8013320:	1420703a 	and	r16,r2,r16
 8013324:	20c0332e 	bgeu	r4,r3,80133f4 <_realloc_r+0x128>
 8013328:	047ffe04 	movi	r17,-8
 801332c:	1c62703a 	and	r17,r3,r17
 8013330:	8807883a 	mov	r3,r17
 8013334:	88005816 	blt	r17,zero,8013498 <_realloc_r+0x1cc>
 8013338:	8c805736 	bltu	r17,r18,8013498 <_realloc_r+0x1cc>
 801333c:	80c0300e 	bge	r16,r3,8013400 <_realloc_r+0x134>
 8013340:	070200b4 	movhi	fp,2050
 8013344:	e72e6904 	addi	fp,fp,-18012
 8013348:	e1c00217 	ldw	r7,8(fp)
 801334c:	9c09883a 	add	r4,r19,r16
 8013350:	22000117 	ldw	r8,4(r4)
 8013354:	21c06326 	beq	r4,r7,80134e4 <_realloc_r+0x218>
 8013358:	017fff84 	movi	r5,-2
 801335c:	414a703a 	and	r5,r8,r5
 8013360:	214b883a 	add	r5,r4,r5
 8013364:	29800117 	ldw	r6,4(r5)
 8013368:	3180004c 	andi	r6,r6,1
 801336c:	30003f26 	beq	r6,zero,801346c <_realloc_r+0x1a0>
 8013370:	1080004c 	andi	r2,r2,1
 8013374:	10008326 	beq	r2,zero,8013584 <_realloc_r+0x2b8>
 8013378:	900b883a 	mov	r5,r18
 801337c:	a009883a 	mov	r4,r20
 8013380:	8011a740 	call	8011a74 <_malloc_r>
 8013384:	1025883a 	mov	r18,r2
 8013388:	10011e26 	beq	r2,zero,8013804 <_realloc_r+0x538>
 801338c:	a93fff17 	ldw	r4,-4(r21)
 8013390:	10fffe04 	addi	r3,r2,-8
 8013394:	00bfff84 	movi	r2,-2
 8013398:	2084703a 	and	r2,r4,r2
 801339c:	9885883a 	add	r2,r19,r2
 80133a0:	1880ee26 	beq	r3,r2,801375c <_realloc_r+0x490>
 80133a4:	81bfff04 	addi	r6,r16,-4
 80133a8:	00800904 	movi	r2,36
 80133ac:	1180b836 	bltu	r2,r6,8013690 <_realloc_r+0x3c4>
 80133b0:	00c004c4 	movi	r3,19
 80133b4:	19809636 	bltu	r3,r6,8013610 <_realloc_r+0x344>
 80133b8:	9005883a 	mov	r2,r18
 80133bc:	a807883a 	mov	r3,r21
 80133c0:	19000017 	ldw	r4,0(r3)
 80133c4:	11000015 	stw	r4,0(r2)
 80133c8:	19000117 	ldw	r4,4(r3)
 80133cc:	11000115 	stw	r4,4(r2)
 80133d0:	18c00217 	ldw	r3,8(r3)
 80133d4:	10c00215 	stw	r3,8(r2)
 80133d8:	a80b883a 	mov	r5,r21
 80133dc:	a009883a 	mov	r4,r20
 80133e0:	8010ecc0 	call	8010ecc <_free_r>
 80133e4:	a009883a 	mov	r4,r20
 80133e8:	80142440 	call	8014244 <__malloc_unlock>
 80133ec:	9005883a 	mov	r2,r18
 80133f0:	00001206 	br	801343c <_realloc_r+0x170>
 80133f4:	00c00404 	movi	r3,16
 80133f8:	1823883a 	mov	r17,r3
 80133fc:	003fce06 	br	8013338 <_gp+0xfffee330>
 8013400:	a825883a 	mov	r18,r21
 8013404:	8445c83a 	sub	r2,r16,r17
 8013408:	00c003c4 	movi	r3,15
 801340c:	18802636 	bltu	r3,r2,80134a8 <_realloc_r+0x1dc>
 8013410:	99800117 	ldw	r6,4(r19)
 8013414:	9c07883a 	add	r3,r19,r16
 8013418:	3180004c 	andi	r6,r6,1
 801341c:	3420b03a 	or	r16,r6,r16
 8013420:	9c000115 	stw	r16,4(r19)
 8013424:	18800117 	ldw	r2,4(r3)
 8013428:	10800054 	ori	r2,r2,1
 801342c:	18800115 	stw	r2,4(r3)
 8013430:	a009883a 	mov	r4,r20
 8013434:	80142440 	call	8014244 <__malloc_unlock>
 8013438:	9005883a 	mov	r2,r18
 801343c:	dfc00917 	ldw	ra,36(sp)
 8013440:	df000817 	ldw	fp,32(sp)
 8013444:	ddc00717 	ldw	r23,28(sp)
 8013448:	dd800617 	ldw	r22,24(sp)
 801344c:	dd400517 	ldw	r21,20(sp)
 8013450:	dd000417 	ldw	r20,16(sp)
 8013454:	dcc00317 	ldw	r19,12(sp)
 8013458:	dc800217 	ldw	r18,8(sp)
 801345c:	dc400117 	ldw	r17,4(sp)
 8013460:	dc000017 	ldw	r16,0(sp)
 8013464:	dec00a04 	addi	sp,sp,40
 8013468:	f800283a 	ret
 801346c:	017fff04 	movi	r5,-4
 8013470:	414a703a 	and	r5,r8,r5
 8013474:	814d883a 	add	r6,r16,r5
 8013478:	30c01f16 	blt	r6,r3,80134f8 <_realloc_r+0x22c>
 801347c:	20800317 	ldw	r2,12(r4)
 8013480:	20c00217 	ldw	r3,8(r4)
 8013484:	a825883a 	mov	r18,r21
 8013488:	3021883a 	mov	r16,r6
 801348c:	18800315 	stw	r2,12(r3)
 8013490:	10c00215 	stw	r3,8(r2)
 8013494:	003fdb06 	br	8013404 <_gp+0xfffee3fc>
 8013498:	00800304 	movi	r2,12
 801349c:	a0800015 	stw	r2,0(r20)
 80134a0:	0005883a 	mov	r2,zero
 80134a4:	003fe506 	br	801343c <_gp+0xfffee434>
 80134a8:	98c00117 	ldw	r3,4(r19)
 80134ac:	9c4b883a 	add	r5,r19,r17
 80134b0:	11000054 	ori	r4,r2,1
 80134b4:	18c0004c 	andi	r3,r3,1
 80134b8:	1c62b03a 	or	r17,r3,r17
 80134bc:	9c400115 	stw	r17,4(r19)
 80134c0:	29000115 	stw	r4,4(r5)
 80134c4:	2885883a 	add	r2,r5,r2
 80134c8:	10c00117 	ldw	r3,4(r2)
 80134cc:	29400204 	addi	r5,r5,8
 80134d0:	a009883a 	mov	r4,r20
 80134d4:	18c00054 	ori	r3,r3,1
 80134d8:	10c00115 	stw	r3,4(r2)
 80134dc:	8010ecc0 	call	8010ecc <_free_r>
 80134e0:	003fd306 	br	8013430 <_gp+0xfffee428>
 80134e4:	017fff04 	movi	r5,-4
 80134e8:	414a703a 	and	r5,r8,r5
 80134ec:	89800404 	addi	r6,r17,16
 80134f0:	8151883a 	add	r8,r16,r5
 80134f4:	4180590e 	bge	r8,r6,801365c <_realloc_r+0x390>
 80134f8:	1080004c 	andi	r2,r2,1
 80134fc:	103f9e1e 	bne	r2,zero,8013378 <_gp+0xfffee370>
 8013500:	adbffe17 	ldw	r22,-8(r21)
 8013504:	00bfff04 	movi	r2,-4
 8013508:	9dadc83a 	sub	r22,r19,r22
 801350c:	b1800117 	ldw	r6,4(r22)
 8013510:	3084703a 	and	r2,r6,r2
 8013514:	20002026 	beq	r4,zero,8013598 <_realloc_r+0x2cc>
 8013518:	80af883a 	add	r23,r16,r2
 801351c:	b96f883a 	add	r23,r23,r5
 8013520:	21c05f26 	beq	r4,r7,80136a0 <_realloc_r+0x3d4>
 8013524:	b8c01c16 	blt	r23,r3,8013598 <_realloc_r+0x2cc>
 8013528:	20800317 	ldw	r2,12(r4)
 801352c:	20c00217 	ldw	r3,8(r4)
 8013530:	81bfff04 	addi	r6,r16,-4
 8013534:	01000904 	movi	r4,36
 8013538:	18800315 	stw	r2,12(r3)
 801353c:	10c00215 	stw	r3,8(r2)
 8013540:	b0c00217 	ldw	r3,8(r22)
 8013544:	b0800317 	ldw	r2,12(r22)
 8013548:	b4800204 	addi	r18,r22,8
 801354c:	18800315 	stw	r2,12(r3)
 8013550:	10c00215 	stw	r3,8(r2)
 8013554:	21801b36 	bltu	r4,r6,80135c4 <_realloc_r+0x2f8>
 8013558:	008004c4 	movi	r2,19
 801355c:	1180352e 	bgeu	r2,r6,8013634 <_realloc_r+0x368>
 8013560:	a8800017 	ldw	r2,0(r21)
 8013564:	b0800215 	stw	r2,8(r22)
 8013568:	a8800117 	ldw	r2,4(r21)
 801356c:	b0800315 	stw	r2,12(r22)
 8013570:	008006c4 	movi	r2,27
 8013574:	11807f36 	bltu	r2,r6,8013774 <_realloc_r+0x4a8>
 8013578:	b0800404 	addi	r2,r22,16
 801357c:	ad400204 	addi	r21,r21,8
 8013580:	00002d06 	br	8013638 <_realloc_r+0x36c>
 8013584:	adbffe17 	ldw	r22,-8(r21)
 8013588:	00bfff04 	movi	r2,-4
 801358c:	9dadc83a 	sub	r22,r19,r22
 8013590:	b1000117 	ldw	r4,4(r22)
 8013594:	2084703a 	and	r2,r4,r2
 8013598:	b03f7726 	beq	r22,zero,8013378 <_gp+0xfffee370>
 801359c:	80af883a 	add	r23,r16,r2
 80135a0:	b8ff7516 	blt	r23,r3,8013378 <_gp+0xfffee370>
 80135a4:	b0800317 	ldw	r2,12(r22)
 80135a8:	b0c00217 	ldw	r3,8(r22)
 80135ac:	81bfff04 	addi	r6,r16,-4
 80135b0:	01000904 	movi	r4,36
 80135b4:	18800315 	stw	r2,12(r3)
 80135b8:	10c00215 	stw	r3,8(r2)
 80135bc:	b4800204 	addi	r18,r22,8
 80135c0:	21bfe52e 	bgeu	r4,r6,8013558 <_gp+0xfffee550>
 80135c4:	a80b883a 	mov	r5,r21
 80135c8:	9009883a 	mov	r4,r18
 80135cc:	80138a00 	call	80138a0 <memmove>
 80135d0:	b821883a 	mov	r16,r23
 80135d4:	b027883a 	mov	r19,r22
 80135d8:	003f8a06 	br	8013404 <_gp+0xfffee3fc>
 80135dc:	300b883a 	mov	r5,r6
 80135e0:	dfc00917 	ldw	ra,36(sp)
 80135e4:	df000817 	ldw	fp,32(sp)
 80135e8:	ddc00717 	ldw	r23,28(sp)
 80135ec:	dd800617 	ldw	r22,24(sp)
 80135f0:	dd400517 	ldw	r21,20(sp)
 80135f4:	dd000417 	ldw	r20,16(sp)
 80135f8:	dcc00317 	ldw	r19,12(sp)
 80135fc:	dc800217 	ldw	r18,8(sp)
 8013600:	dc400117 	ldw	r17,4(sp)
 8013604:	dc000017 	ldw	r16,0(sp)
 8013608:	dec00a04 	addi	sp,sp,40
 801360c:	8011a741 	jmpi	8011a74 <_malloc_r>
 8013610:	a8c00017 	ldw	r3,0(r21)
 8013614:	90c00015 	stw	r3,0(r18)
 8013618:	a8c00117 	ldw	r3,4(r21)
 801361c:	90c00115 	stw	r3,4(r18)
 8013620:	00c006c4 	movi	r3,27
 8013624:	19804536 	bltu	r3,r6,801373c <_realloc_r+0x470>
 8013628:	90800204 	addi	r2,r18,8
 801362c:	a8c00204 	addi	r3,r21,8
 8013630:	003f6306 	br	80133c0 <_gp+0xfffee3b8>
 8013634:	9005883a 	mov	r2,r18
 8013638:	a8c00017 	ldw	r3,0(r21)
 801363c:	b821883a 	mov	r16,r23
 8013640:	b027883a 	mov	r19,r22
 8013644:	10c00015 	stw	r3,0(r2)
 8013648:	a8c00117 	ldw	r3,4(r21)
 801364c:	10c00115 	stw	r3,4(r2)
 8013650:	a8c00217 	ldw	r3,8(r21)
 8013654:	10c00215 	stw	r3,8(r2)
 8013658:	003f6a06 	br	8013404 <_gp+0xfffee3fc>
 801365c:	9c67883a 	add	r19,r19,r17
 8013660:	4445c83a 	sub	r2,r8,r17
 8013664:	e4c00215 	stw	r19,8(fp)
 8013668:	10800054 	ori	r2,r2,1
 801366c:	98800115 	stw	r2,4(r19)
 8013670:	a8bfff17 	ldw	r2,-4(r21)
 8013674:	a009883a 	mov	r4,r20
 8013678:	1080004c 	andi	r2,r2,1
 801367c:	1462b03a 	or	r17,r2,r17
 8013680:	ac7fff15 	stw	r17,-4(r21)
 8013684:	80142440 	call	8014244 <__malloc_unlock>
 8013688:	a805883a 	mov	r2,r21
 801368c:	003f6b06 	br	801343c <_gp+0xfffee434>
 8013690:	a80b883a 	mov	r5,r21
 8013694:	9009883a 	mov	r4,r18
 8013698:	80138a00 	call	80138a0 <memmove>
 801369c:	003f4e06 	br	80133d8 <_gp+0xfffee3d0>
 80136a0:	89000404 	addi	r4,r17,16
 80136a4:	b93fbc16 	blt	r23,r4,8013598 <_gp+0xfffee590>
 80136a8:	b0800317 	ldw	r2,12(r22)
 80136ac:	b0c00217 	ldw	r3,8(r22)
 80136b0:	81bfff04 	addi	r6,r16,-4
 80136b4:	01000904 	movi	r4,36
 80136b8:	18800315 	stw	r2,12(r3)
 80136bc:	10c00215 	stw	r3,8(r2)
 80136c0:	b4800204 	addi	r18,r22,8
 80136c4:	21804336 	bltu	r4,r6,80137d4 <_realloc_r+0x508>
 80136c8:	008004c4 	movi	r2,19
 80136cc:	11803f2e 	bgeu	r2,r6,80137cc <_realloc_r+0x500>
 80136d0:	a8800017 	ldw	r2,0(r21)
 80136d4:	b0800215 	stw	r2,8(r22)
 80136d8:	a8800117 	ldw	r2,4(r21)
 80136dc:	b0800315 	stw	r2,12(r22)
 80136e0:	008006c4 	movi	r2,27
 80136e4:	11803f36 	bltu	r2,r6,80137e4 <_realloc_r+0x518>
 80136e8:	b0800404 	addi	r2,r22,16
 80136ec:	ad400204 	addi	r21,r21,8
 80136f0:	a8c00017 	ldw	r3,0(r21)
 80136f4:	10c00015 	stw	r3,0(r2)
 80136f8:	a8c00117 	ldw	r3,4(r21)
 80136fc:	10c00115 	stw	r3,4(r2)
 8013700:	a8c00217 	ldw	r3,8(r21)
 8013704:	10c00215 	stw	r3,8(r2)
 8013708:	b447883a 	add	r3,r22,r17
 801370c:	bc45c83a 	sub	r2,r23,r17
 8013710:	e0c00215 	stw	r3,8(fp)
 8013714:	10800054 	ori	r2,r2,1
 8013718:	18800115 	stw	r2,4(r3)
 801371c:	b0800117 	ldw	r2,4(r22)
 8013720:	a009883a 	mov	r4,r20
 8013724:	1080004c 	andi	r2,r2,1
 8013728:	1462b03a 	or	r17,r2,r17
 801372c:	b4400115 	stw	r17,4(r22)
 8013730:	80142440 	call	8014244 <__malloc_unlock>
 8013734:	9005883a 	mov	r2,r18
 8013738:	003f4006 	br	801343c <_gp+0xfffee434>
 801373c:	a8c00217 	ldw	r3,8(r21)
 8013740:	90c00215 	stw	r3,8(r18)
 8013744:	a8c00317 	ldw	r3,12(r21)
 8013748:	90c00315 	stw	r3,12(r18)
 801374c:	30801126 	beq	r6,r2,8013794 <_realloc_r+0x4c8>
 8013750:	90800404 	addi	r2,r18,16
 8013754:	a8c00404 	addi	r3,r21,16
 8013758:	003f1906 	br	80133c0 <_gp+0xfffee3b8>
 801375c:	90ffff17 	ldw	r3,-4(r18)
 8013760:	00bfff04 	movi	r2,-4
 8013764:	a825883a 	mov	r18,r21
 8013768:	1884703a 	and	r2,r3,r2
 801376c:	80a1883a 	add	r16,r16,r2
 8013770:	003f2406 	br	8013404 <_gp+0xfffee3fc>
 8013774:	a8800217 	ldw	r2,8(r21)
 8013778:	b0800415 	stw	r2,16(r22)
 801377c:	a8800317 	ldw	r2,12(r21)
 8013780:	b0800515 	stw	r2,20(r22)
 8013784:	31000a26 	beq	r6,r4,80137b0 <_realloc_r+0x4e4>
 8013788:	b0800604 	addi	r2,r22,24
 801378c:	ad400404 	addi	r21,r21,16
 8013790:	003fa906 	br	8013638 <_gp+0xfffee630>
 8013794:	a9000417 	ldw	r4,16(r21)
 8013798:	90800604 	addi	r2,r18,24
 801379c:	a8c00604 	addi	r3,r21,24
 80137a0:	91000415 	stw	r4,16(r18)
 80137a4:	a9000517 	ldw	r4,20(r21)
 80137a8:	91000515 	stw	r4,20(r18)
 80137ac:	003f0406 	br	80133c0 <_gp+0xfffee3b8>
 80137b0:	a8c00417 	ldw	r3,16(r21)
 80137b4:	ad400604 	addi	r21,r21,24
 80137b8:	b0800804 	addi	r2,r22,32
 80137bc:	b0c00615 	stw	r3,24(r22)
 80137c0:	a8ffff17 	ldw	r3,-4(r21)
 80137c4:	b0c00715 	stw	r3,28(r22)
 80137c8:	003f9b06 	br	8013638 <_gp+0xfffee630>
 80137cc:	9005883a 	mov	r2,r18
 80137d0:	003fc706 	br	80136f0 <_gp+0xfffee6e8>
 80137d4:	a80b883a 	mov	r5,r21
 80137d8:	9009883a 	mov	r4,r18
 80137dc:	80138a00 	call	80138a0 <memmove>
 80137e0:	003fc906 	br	8013708 <_gp+0xfffee700>
 80137e4:	a8800217 	ldw	r2,8(r21)
 80137e8:	b0800415 	stw	r2,16(r22)
 80137ec:	a8800317 	ldw	r2,12(r21)
 80137f0:	b0800515 	stw	r2,20(r22)
 80137f4:	31000726 	beq	r6,r4,8013814 <_realloc_r+0x548>
 80137f8:	b0800604 	addi	r2,r22,24
 80137fc:	ad400404 	addi	r21,r21,16
 8013800:	003fbb06 	br	80136f0 <_gp+0xfffee6e8>
 8013804:	a009883a 	mov	r4,r20
 8013808:	80142440 	call	8014244 <__malloc_unlock>
 801380c:	0005883a 	mov	r2,zero
 8013810:	003f0a06 	br	801343c <_gp+0xfffee434>
 8013814:	a8c00417 	ldw	r3,16(r21)
 8013818:	ad400604 	addi	r21,r21,24
 801381c:	b0800804 	addi	r2,r22,32
 8013820:	b0c00615 	stw	r3,24(r22)
 8013824:	a8ffff17 	ldw	r3,-4(r21)
 8013828:	b0c00715 	stw	r3,28(r22)
 801382c:	003fb006 	br	80136f0 <_gp+0xfffee6e8>

08013830 <__errno>:
 8013830:	008200b4 	movhi	r2,2050
 8013834:	10b40304 	addi	r2,r2,-12276
 8013838:	10800017 	ldw	r2,0(r2)
 801383c:	f800283a 	ret

08013840 <_getc_unlocked_r>:
 8013840:	28800117 	ldw	r2,4(r5)
 8013844:	10bfffc4 	addi	r2,r2,-1
 8013848:	28800115 	stw	r2,4(r5)
 801384c:	10000516 	blt	r2,zero,8013864 <_getc_unlocked_r+0x24>
 8013850:	28800017 	ldw	r2,0(r5)
 8013854:	11000044 	addi	r4,r2,1
 8013858:	29000015 	stw	r4,0(r5)
 801385c:	10800003 	ldbu	r2,0(r2)
 8013860:	f800283a 	ret
 8013864:	80139fc1 	jmpi	80139fc <__srget_r>

08013868 <getc_unlocked>:
 8013868:	20800117 	ldw	r2,4(r4)
 801386c:	10bfffc4 	addi	r2,r2,-1
 8013870:	20800115 	stw	r2,4(r4)
 8013874:	10000516 	blt	r2,zero,801388c <getc_unlocked+0x24>
 8013878:	20800017 	ldw	r2,0(r4)
 801387c:	10c00044 	addi	r3,r2,1
 8013880:	20c00015 	stw	r3,0(r4)
 8013884:	10800003 	ldbu	r2,0(r2)
 8013888:	f800283a 	ret
 801388c:	008200b4 	movhi	r2,2050
 8013890:	10b40304 	addi	r2,r2,-12276
 8013894:	200b883a 	mov	r5,r4
 8013898:	11000017 	ldw	r4,0(r2)
 801389c:	80139fc1 	jmpi	80139fc <__srget_r>

080138a0 <memmove>:
 80138a0:	2005883a 	mov	r2,r4
 80138a4:	29000b2e 	bgeu	r5,r4,80138d4 <memmove+0x34>
 80138a8:	298f883a 	add	r7,r5,r6
 80138ac:	21c0092e 	bgeu	r4,r7,80138d4 <memmove+0x34>
 80138b0:	2187883a 	add	r3,r4,r6
 80138b4:	198bc83a 	sub	r5,r3,r6
 80138b8:	30004826 	beq	r6,zero,80139dc <memmove+0x13c>
 80138bc:	39ffffc4 	addi	r7,r7,-1
 80138c0:	39000003 	ldbu	r4,0(r7)
 80138c4:	18ffffc4 	addi	r3,r3,-1
 80138c8:	19000005 	stb	r4,0(r3)
 80138cc:	28fffb1e 	bne	r5,r3,80138bc <_gp+0xfffee8b4>
 80138d0:	f800283a 	ret
 80138d4:	00c003c4 	movi	r3,15
 80138d8:	1980412e 	bgeu	r3,r6,80139e0 <memmove+0x140>
 80138dc:	2886b03a 	or	r3,r5,r2
 80138e0:	18c000cc 	andi	r3,r3,3
 80138e4:	1800401e 	bne	r3,zero,80139e8 <memmove+0x148>
 80138e8:	33fffc04 	addi	r15,r6,-16
 80138ec:	781ed13a 	srli	r15,r15,4
 80138f0:	28c00104 	addi	r3,r5,4
 80138f4:	13400104 	addi	r13,r2,4
 80138f8:	781c913a 	slli	r14,r15,4
 80138fc:	2b000204 	addi	r12,r5,8
 8013900:	12c00204 	addi	r11,r2,8
 8013904:	73800504 	addi	r14,r14,20
 8013908:	2a800304 	addi	r10,r5,12
 801390c:	12400304 	addi	r9,r2,12
 8013910:	2b9d883a 	add	r14,r5,r14
 8013914:	2811883a 	mov	r8,r5
 8013918:	100f883a 	mov	r7,r2
 801391c:	41000017 	ldw	r4,0(r8)
 8013920:	39c00404 	addi	r7,r7,16
 8013924:	18c00404 	addi	r3,r3,16
 8013928:	393ffc15 	stw	r4,-16(r7)
 801392c:	193ffc17 	ldw	r4,-16(r3)
 8013930:	6b400404 	addi	r13,r13,16
 8013934:	5ac00404 	addi	r11,r11,16
 8013938:	693ffc15 	stw	r4,-16(r13)
 801393c:	61000017 	ldw	r4,0(r12)
 8013940:	4a400404 	addi	r9,r9,16
 8013944:	42000404 	addi	r8,r8,16
 8013948:	593ffc15 	stw	r4,-16(r11)
 801394c:	51000017 	ldw	r4,0(r10)
 8013950:	63000404 	addi	r12,r12,16
 8013954:	52800404 	addi	r10,r10,16
 8013958:	493ffc15 	stw	r4,-16(r9)
 801395c:	1bbfef1e 	bne	r3,r14,801391c <_gp+0xfffee914>
 8013960:	79000044 	addi	r4,r15,1
 8013964:	2008913a 	slli	r4,r4,4
 8013968:	328003cc 	andi	r10,r6,15
 801396c:	02c000c4 	movi	r11,3
 8013970:	1107883a 	add	r3,r2,r4
 8013974:	290b883a 	add	r5,r5,r4
 8013978:	5a801e2e 	bgeu	r11,r10,80139f4 <memmove+0x154>
 801397c:	1813883a 	mov	r9,r3
 8013980:	2811883a 	mov	r8,r5
 8013984:	500f883a 	mov	r7,r10
 8013988:	41000017 	ldw	r4,0(r8)
 801398c:	4a400104 	addi	r9,r9,4
 8013990:	39ffff04 	addi	r7,r7,-4
 8013994:	493fff15 	stw	r4,-4(r9)
 8013998:	42000104 	addi	r8,r8,4
 801399c:	59fffa36 	bltu	r11,r7,8013988 <_gp+0xfffee980>
 80139a0:	513fff04 	addi	r4,r10,-4
 80139a4:	2008d0ba 	srli	r4,r4,2
 80139a8:	318000cc 	andi	r6,r6,3
 80139ac:	21000044 	addi	r4,r4,1
 80139b0:	2109883a 	add	r4,r4,r4
 80139b4:	2109883a 	add	r4,r4,r4
 80139b8:	1907883a 	add	r3,r3,r4
 80139bc:	290b883a 	add	r5,r5,r4
 80139c0:	30000b26 	beq	r6,zero,80139f0 <memmove+0x150>
 80139c4:	198d883a 	add	r6,r3,r6
 80139c8:	29c00003 	ldbu	r7,0(r5)
 80139cc:	18c00044 	addi	r3,r3,1
 80139d0:	29400044 	addi	r5,r5,1
 80139d4:	19ffffc5 	stb	r7,-1(r3)
 80139d8:	19bffb1e 	bne	r3,r6,80139c8 <_gp+0xfffee9c0>
 80139dc:	f800283a 	ret
 80139e0:	1007883a 	mov	r3,r2
 80139e4:	003ff606 	br	80139c0 <_gp+0xfffee9b8>
 80139e8:	1007883a 	mov	r3,r2
 80139ec:	003ff506 	br	80139c4 <_gp+0xfffee9bc>
 80139f0:	f800283a 	ret
 80139f4:	500d883a 	mov	r6,r10
 80139f8:	003ff106 	br	80139c0 <_gp+0xfffee9b8>

080139fc <__srget_r>:
 80139fc:	defffd04 	addi	sp,sp,-12
 8013a00:	dc400115 	stw	r17,4(sp)
 8013a04:	dc000015 	stw	r16,0(sp)
 8013a08:	dfc00215 	stw	ra,8(sp)
 8013a0c:	2023883a 	mov	r17,r4
 8013a10:	2821883a 	mov	r16,r5
 8013a14:	20000226 	beq	r4,zero,8013a20 <__srget_r+0x24>
 8013a18:	20800e17 	ldw	r2,56(r4)
 8013a1c:	10001026 	beq	r2,zero,8013a60 <__srget_r+0x64>
 8013a20:	800b883a 	mov	r5,r16
 8013a24:	8809883a 	mov	r4,r17
 8013a28:	801256c0 	call	801256c <__srefill_r>
 8013a2c:	10000e1e 	bne	r2,zero,8013a68 <__srget_r+0x6c>
 8013a30:	80c00017 	ldw	r3,0(r16)
 8013a34:	80800117 	ldw	r2,4(r16)
 8013a38:	19000044 	addi	r4,r3,1
 8013a3c:	10bfffc4 	addi	r2,r2,-1
 8013a40:	80800115 	stw	r2,4(r16)
 8013a44:	81000015 	stw	r4,0(r16)
 8013a48:	18800003 	ldbu	r2,0(r3)
 8013a4c:	dfc00217 	ldw	ra,8(sp)
 8013a50:	dc400117 	ldw	r17,4(sp)
 8013a54:	dc000017 	ldw	r16,0(sp)
 8013a58:	dec00304 	addi	sp,sp,12
 8013a5c:	f800283a 	ret
 8013a60:	8010c4c0 	call	8010c4c <__sinit>
 8013a64:	003fee06 	br	8013a20 <_gp+0xfffeea18>
 8013a68:	00bfffc4 	movi	r2,-1
 8013a6c:	003ff706 	br	8013a4c <_gp+0xfffeea44>

08013a70 <__srget>:
 8013a70:	008200b4 	movhi	r2,2050
 8013a74:	10b40304 	addi	r2,r2,-12276
 8013a78:	200b883a 	mov	r5,r4
 8013a7c:	11000017 	ldw	r4,0(r2)
 8013a80:	80139fc1 	jmpi	80139fc <__srget_r>

08013a84 <__divsi3>:
 8013a84:	20001b16 	blt	r4,zero,8013af4 <__divsi3+0x70>
 8013a88:	000f883a 	mov	r7,zero
 8013a8c:	28001616 	blt	r5,zero,8013ae8 <__divsi3+0x64>
 8013a90:	200d883a 	mov	r6,r4
 8013a94:	29001a2e 	bgeu	r5,r4,8013b00 <__divsi3+0x7c>
 8013a98:	00800804 	movi	r2,32
 8013a9c:	00c00044 	movi	r3,1
 8013aa0:	00000106 	br	8013aa8 <__divsi3+0x24>
 8013aa4:	10000d26 	beq	r2,zero,8013adc <__divsi3+0x58>
 8013aa8:	294b883a 	add	r5,r5,r5
 8013aac:	10bfffc4 	addi	r2,r2,-1
 8013ab0:	18c7883a 	add	r3,r3,r3
 8013ab4:	293ffb36 	bltu	r5,r4,8013aa4 <_gp+0xfffeea9c>
 8013ab8:	0005883a 	mov	r2,zero
 8013abc:	18000726 	beq	r3,zero,8013adc <__divsi3+0x58>
 8013ac0:	0005883a 	mov	r2,zero
 8013ac4:	31400236 	bltu	r6,r5,8013ad0 <__divsi3+0x4c>
 8013ac8:	314dc83a 	sub	r6,r6,r5
 8013acc:	10c4b03a 	or	r2,r2,r3
 8013ad0:	1806d07a 	srli	r3,r3,1
 8013ad4:	280ad07a 	srli	r5,r5,1
 8013ad8:	183ffa1e 	bne	r3,zero,8013ac4 <_gp+0xfffeeabc>
 8013adc:	38000126 	beq	r7,zero,8013ae4 <__divsi3+0x60>
 8013ae0:	0085c83a 	sub	r2,zero,r2
 8013ae4:	f800283a 	ret
 8013ae8:	014bc83a 	sub	r5,zero,r5
 8013aec:	39c0005c 	xori	r7,r7,1
 8013af0:	003fe706 	br	8013a90 <_gp+0xfffeea88>
 8013af4:	0109c83a 	sub	r4,zero,r4
 8013af8:	01c00044 	movi	r7,1
 8013afc:	003fe306 	br	8013a8c <_gp+0xfffeea84>
 8013b00:	00c00044 	movi	r3,1
 8013b04:	003fee06 	br	8013ac0 <_gp+0xfffeeab8>

08013b08 <__modsi3>:
 8013b08:	20001716 	blt	r4,zero,8013b68 <__modsi3+0x60>
 8013b0c:	000f883a 	mov	r7,zero
 8013b10:	2005883a 	mov	r2,r4
 8013b14:	28001216 	blt	r5,zero,8013b60 <__modsi3+0x58>
 8013b18:	2900162e 	bgeu	r5,r4,8013b74 <__modsi3+0x6c>
 8013b1c:	01800804 	movi	r6,32
 8013b20:	00c00044 	movi	r3,1
 8013b24:	00000106 	br	8013b2c <__modsi3+0x24>
 8013b28:	30000a26 	beq	r6,zero,8013b54 <__modsi3+0x4c>
 8013b2c:	294b883a 	add	r5,r5,r5
 8013b30:	31bfffc4 	addi	r6,r6,-1
 8013b34:	18c7883a 	add	r3,r3,r3
 8013b38:	293ffb36 	bltu	r5,r4,8013b28 <_gp+0xfffeeb20>
 8013b3c:	18000526 	beq	r3,zero,8013b54 <__modsi3+0x4c>
 8013b40:	1806d07a 	srli	r3,r3,1
 8013b44:	11400136 	bltu	r2,r5,8013b4c <__modsi3+0x44>
 8013b48:	1145c83a 	sub	r2,r2,r5
 8013b4c:	280ad07a 	srli	r5,r5,1
 8013b50:	183ffb1e 	bne	r3,zero,8013b40 <_gp+0xfffeeb38>
 8013b54:	38000126 	beq	r7,zero,8013b5c <__modsi3+0x54>
 8013b58:	0085c83a 	sub	r2,zero,r2
 8013b5c:	f800283a 	ret
 8013b60:	014bc83a 	sub	r5,zero,r5
 8013b64:	003fec06 	br	8013b18 <_gp+0xfffeeb10>
 8013b68:	0109c83a 	sub	r4,zero,r4
 8013b6c:	01c00044 	movi	r7,1
 8013b70:	003fe706 	br	8013b10 <_gp+0xfffeeb08>
 8013b74:	00c00044 	movi	r3,1
 8013b78:	003ff106 	br	8013b40 <_gp+0xfffeeb38>

08013b7c <__udivsi3>:
 8013b7c:	200d883a 	mov	r6,r4
 8013b80:	2900152e 	bgeu	r5,r4,8013bd8 <__udivsi3+0x5c>
 8013b84:	28001416 	blt	r5,zero,8013bd8 <__udivsi3+0x5c>
 8013b88:	00800804 	movi	r2,32
 8013b8c:	00c00044 	movi	r3,1
 8013b90:	00000206 	br	8013b9c <__udivsi3+0x20>
 8013b94:	10000e26 	beq	r2,zero,8013bd0 <__udivsi3+0x54>
 8013b98:	28000516 	blt	r5,zero,8013bb0 <__udivsi3+0x34>
 8013b9c:	294b883a 	add	r5,r5,r5
 8013ba0:	10bfffc4 	addi	r2,r2,-1
 8013ba4:	18c7883a 	add	r3,r3,r3
 8013ba8:	293ffa36 	bltu	r5,r4,8013b94 <_gp+0xfffeeb8c>
 8013bac:	18000826 	beq	r3,zero,8013bd0 <__udivsi3+0x54>
 8013bb0:	0005883a 	mov	r2,zero
 8013bb4:	31400236 	bltu	r6,r5,8013bc0 <__udivsi3+0x44>
 8013bb8:	314dc83a 	sub	r6,r6,r5
 8013bbc:	10c4b03a 	or	r2,r2,r3
 8013bc0:	1806d07a 	srli	r3,r3,1
 8013bc4:	280ad07a 	srli	r5,r5,1
 8013bc8:	183ffa1e 	bne	r3,zero,8013bb4 <_gp+0xfffeebac>
 8013bcc:	f800283a 	ret
 8013bd0:	0005883a 	mov	r2,zero
 8013bd4:	f800283a 	ret
 8013bd8:	00c00044 	movi	r3,1
 8013bdc:	003ff406 	br	8013bb0 <_gp+0xfffeeba8>

08013be0 <__umodsi3>:
 8013be0:	2005883a 	mov	r2,r4
 8013be4:	2900122e 	bgeu	r5,r4,8013c30 <__umodsi3+0x50>
 8013be8:	28001116 	blt	r5,zero,8013c30 <__umodsi3+0x50>
 8013bec:	01800804 	movi	r6,32
 8013bf0:	00c00044 	movi	r3,1
 8013bf4:	00000206 	br	8013c00 <__umodsi3+0x20>
 8013bf8:	30000c26 	beq	r6,zero,8013c2c <__umodsi3+0x4c>
 8013bfc:	28000516 	blt	r5,zero,8013c14 <__umodsi3+0x34>
 8013c00:	294b883a 	add	r5,r5,r5
 8013c04:	31bfffc4 	addi	r6,r6,-1
 8013c08:	18c7883a 	add	r3,r3,r3
 8013c0c:	293ffa36 	bltu	r5,r4,8013bf8 <_gp+0xfffeebf0>
 8013c10:	18000626 	beq	r3,zero,8013c2c <__umodsi3+0x4c>
 8013c14:	1806d07a 	srli	r3,r3,1
 8013c18:	11400136 	bltu	r2,r5,8013c20 <__umodsi3+0x40>
 8013c1c:	1145c83a 	sub	r2,r2,r5
 8013c20:	280ad07a 	srli	r5,r5,1
 8013c24:	183ffb1e 	bne	r3,zero,8013c14 <_gp+0xfffeec0c>
 8013c28:	f800283a 	ret
 8013c2c:	f800283a 	ret
 8013c30:	00c00044 	movi	r3,1
 8013c34:	003ff706 	br	8013c14 <_gp+0xfffeec0c>

08013c38 <__mulsi3>:
 8013c38:	0005883a 	mov	r2,zero
 8013c3c:	20000726 	beq	r4,zero,8013c5c <__mulsi3+0x24>
 8013c40:	20c0004c 	andi	r3,r4,1
 8013c44:	2008d07a 	srli	r4,r4,1
 8013c48:	18000126 	beq	r3,zero,8013c50 <__mulsi3+0x18>
 8013c4c:	1145883a 	add	r2,r2,r5
 8013c50:	294b883a 	add	r5,r5,r5
 8013c54:	203ffa1e 	bne	r4,zero,8013c40 <_gp+0xfffeec38>
 8013c58:	f800283a 	ret
 8013c5c:	f800283a 	ret

08013c60 <alt_get_errno>:
#undef errno

extern int errno;

static ALT_INLINE int* alt_get_errno(void)
{
 8013c60:	defffe04 	addi	sp,sp,-8
 8013c64:	dfc00115 	stw	ra,4(sp)
 8013c68:	df000015 	stw	fp,0(sp)
 8013c6c:	d839883a 	mov	fp,sp
  return ((alt_errno) ? alt_errno() : &errno);
 8013c70:	d0a00a17 	ldw	r2,-32728(gp)
 8013c74:	10000326 	beq	r2,zero,8013c84 <alt_get_errno+0x24>
 8013c78:	d0a00a17 	ldw	r2,-32728(gp)
 8013c7c:	103ee83a 	callr	r2
 8013c80:	00000106 	br	8013c88 <alt_get_errno+0x28>
 8013c84:	d0a6e404 	addi	r2,gp,-25712
}
 8013c88:	e037883a 	mov	sp,fp
 8013c8c:	dfc00117 	ldw	ra,4(sp)
 8013c90:	df000017 	ldw	fp,0(sp)
 8013c94:	dec00204 	addi	sp,sp,8
 8013c98:	f800283a 	ret

08013c9c <close>:
 *
 * ALT_CLOSE is mapped onto the close() system call in alt_syscall.h
 */
 
int ALT_CLOSE (int fildes)
{
 8013c9c:	defffb04 	addi	sp,sp,-20
 8013ca0:	dfc00415 	stw	ra,16(sp)
 8013ca4:	df000315 	stw	fp,12(sp)
 8013ca8:	df000304 	addi	fp,sp,12
 8013cac:	e13fff15 	stw	r4,-4(fp)
   * A common error case is that when the file descriptor was created, the call
   * to open() failed resulting in a negative file descriptor. This is trapped
   * below so that we don't try and process an invalid file descriptor.
   */

  fd = (fildes < 0) ? NULL : &alt_fd_list[fildes];
 8013cb0:	e0bfff17 	ldw	r2,-4(fp)
 8013cb4:	10000816 	blt	r2,zero,8013cd8 <close+0x3c>
 8013cb8:	01400304 	movi	r5,12
 8013cbc:	e13fff17 	ldw	r4,-4(fp)
 8013cc0:	8013c380 	call	8013c38 <__mulsi3>
 8013cc4:	1007883a 	mov	r3,r2
 8013cc8:	008200b4 	movhi	r2,2050
 8013ccc:	10af7504 	addi	r2,r2,-16940
 8013cd0:	1885883a 	add	r2,r3,r2
 8013cd4:	00000106 	br	8013cdc <close+0x40>
 8013cd8:	0005883a 	mov	r2,zero
 8013cdc:	e0bffd15 	stw	r2,-12(fp)

  if (fd)
 8013ce0:	e0bffd17 	ldw	r2,-12(fp)
 8013ce4:	10001926 	beq	r2,zero,8013d4c <close+0xb0>
    /*
     * If the associated file system/device has a close function, call it so 
     * that any necessary cleanup code can run.
     */

    rval = (fd->dev->close) ? fd->dev->close(fd) : 0;
 8013ce8:	e0bffd17 	ldw	r2,-12(fp)
 8013cec:	10800017 	ldw	r2,0(r2)
 8013cf0:	10800417 	ldw	r2,16(r2)
 8013cf4:	10000626 	beq	r2,zero,8013d10 <close+0x74>
 8013cf8:	e0bffd17 	ldw	r2,-12(fp)
 8013cfc:	10800017 	ldw	r2,0(r2)
 8013d00:	10800417 	ldw	r2,16(r2)
 8013d04:	e13ffd17 	ldw	r4,-12(fp)
 8013d08:	103ee83a 	callr	r2
 8013d0c:	00000106 	br	8013d14 <close+0x78>
 8013d10:	0005883a 	mov	r2,zero
 8013d14:	e0bffe15 	stw	r2,-8(fp)

    /* Free the file descriptor structure and return. */

    alt_release_fd (fildes);
 8013d18:	e13fff17 	ldw	r4,-4(fp)
 8013d1c:	80148940 	call	8014894 <alt_release_fd>
    if (rval < 0)
 8013d20:	e0bffe17 	ldw	r2,-8(fp)
 8013d24:	1000070e 	bge	r2,zero,8013d44 <close+0xa8>
    {
      ALT_ERRNO = -rval;
 8013d28:	8013c600 	call	8013c60 <alt_get_errno>
 8013d2c:	1007883a 	mov	r3,r2
 8013d30:	e0bffe17 	ldw	r2,-8(fp)
 8013d34:	0085c83a 	sub	r2,zero,r2
 8013d38:	18800015 	stw	r2,0(r3)
      return -1;
 8013d3c:	00bfffc4 	movi	r2,-1
 8013d40:	00000706 	br	8013d60 <close+0xc4>
    }
    return 0;
 8013d44:	0005883a 	mov	r2,zero
 8013d48:	00000506 	br	8013d60 <close+0xc4>
  }
  else
  {
    ALT_ERRNO = EBADFD;
 8013d4c:	8013c600 	call	8013c60 <alt_get_errno>
 8013d50:	1007883a 	mov	r3,r2
 8013d54:	00801444 	movi	r2,81
 8013d58:	18800015 	stw	r2,0(r3)
    return -1;
 8013d5c:	00bfffc4 	movi	r2,-1
  }
}
 8013d60:	e037883a 	mov	sp,fp
 8013d64:	dfc00117 	ldw	ra,4(sp)
 8013d68:	df000017 	ldw	fp,0(sp)
 8013d6c:	dec00204 	addi	sp,sp,8
 8013d70:	f800283a 	ret

08013d74 <alt_dev_null_write>:
 * by the alt_dev_null device. It simple discards all data passed to it, and
 * indicates that the data has been successfully transmitted.
 */

static int alt_dev_null_write (alt_fd* fd, const char* ptr, int len)
{
 8013d74:	defffc04 	addi	sp,sp,-16
 8013d78:	df000315 	stw	fp,12(sp)
 8013d7c:	df000304 	addi	fp,sp,12
 8013d80:	e13ffd15 	stw	r4,-12(fp)
 8013d84:	e17ffe15 	stw	r5,-8(fp)
 8013d88:	e1bfff15 	stw	r6,-4(fp)
  return len;
 8013d8c:	e0bfff17 	ldw	r2,-4(fp)
}
 8013d90:	e037883a 	mov	sp,fp
 8013d94:	df000017 	ldw	fp,0(sp)
 8013d98:	dec00104 	addi	sp,sp,4
 8013d9c:	f800283a 	ret

08013da0 <_exit>:
 *
 * ALT_EXIT is mapped onto the _exit() system call in alt_syscall.h
 */

void ALT_EXIT (int exit_code)
{
 8013da0:	defffd04 	addi	sp,sp,-12
 8013da4:	df000215 	stw	fp,8(sp)
 8013da8:	df000204 	addi	fp,sp,8
 8013dac:	e13fff15 	stw	r4,-4(fp)
  ALT_LOG_PRINT_BOOT("[alt_exit.c] Entering _exit() function.\r\n");
  ALT_LOG_PRINT_BOOT("[alt_exit.c] Exit code from main was %d.\r\n",exit_code);
  /* Stop all other threads */

  ALT_LOG_PRINT_BOOT("[alt_exit.c] Calling ALT_OS_STOP().\r\n");
  ALT_OS_STOP();
 8013db0:	0001883a 	nop
 8013db4:	e0bfff17 	ldw	r2,-4(fp)
 8013db8:	e0bffe15 	stw	r2,-8(fp)
/*
 * Routine called on exit.
 */
static ALT_INLINE ALT_ALWAYS_INLINE void alt_sim_halt(int exit_code)
{
  register int r2 asm ("r2") = exit_code;
 8013dbc:	e0bffe17 	ldw	r2,-8(fp)
  __asm__ volatile ("\n0:\n\taddi %0,%0, -1\n\tbgt %0,zero,0b" : : "r" (ALT_CPU_FREQ/100) ); /* Delay for >30ms */

  __asm__ volatile ("break 2" : : "r"(r2), "r"(r3) ALT_GMON_DATA );

#else /* !DEBUG_STUB */
  if (r2) {
 8013dc0:	10000226 	beq	r2,zero,8013dcc <_exit+0x2c>
    ALT_SIM_FAIL();
 8013dc4:	002af070 	cmpltui	zero,zero,43969
 8013dc8:	00000106 	br	8013dd0 <_exit+0x30>
  } else {
    ALT_SIM_PASS();
 8013dcc:	002af0b0 	cmpltui	zero,zero,43970
  ALT_SIM_HALT(exit_code);

  /* spin forever, since there's no where to go back to */

  ALT_LOG_PRINT_BOOT("[alt_exit.c] Spinning forever.\r\n");
  while (1);
 8013dd0:	003fff06 	br	8013dd0 <_gp+0xfffeedc8>

08013dd4 <alt_get_errno>:
#undef errno

extern int errno;

static ALT_INLINE int* alt_get_errno(void)
{
 8013dd4:	defffe04 	addi	sp,sp,-8
 8013dd8:	dfc00115 	stw	ra,4(sp)
 8013ddc:	df000015 	stw	fp,0(sp)
 8013de0:	d839883a 	mov	fp,sp
  return ((alt_errno) ? alt_errno() : &errno);
 8013de4:	d0a00a17 	ldw	r2,-32728(gp)
 8013de8:	10000326 	beq	r2,zero,8013df8 <alt_get_errno+0x24>
 8013dec:	d0a00a17 	ldw	r2,-32728(gp)
 8013df0:	103ee83a 	callr	r2
 8013df4:	00000106 	br	8013dfc <alt_get_errno+0x28>
 8013df8:	d0a6e404 	addi	r2,gp,-25712
}
 8013dfc:	e037883a 	mov	sp,fp
 8013e00:	dfc00117 	ldw	ra,4(sp)
 8013e04:	df000017 	ldw	fp,0(sp)
 8013e08:	dec00204 	addi	sp,sp,8
 8013e0c:	f800283a 	ret

08013e10 <fstat>:
}

#else /* !ALT_USE_DIRECT_DRIVERS */

int ALT_FSTAT (int file, struct stat *st)
{
 8013e10:	defffb04 	addi	sp,sp,-20
 8013e14:	dfc00415 	stw	ra,16(sp)
 8013e18:	df000315 	stw	fp,12(sp)
 8013e1c:	df000304 	addi	fp,sp,12
 8013e20:	e13ffe15 	stw	r4,-8(fp)
 8013e24:	e17fff15 	stw	r5,-4(fp)
   * A common error case is that when the file descriptor was created, the call
   * to open() failed resulting in a negative file descriptor. This is trapped
   * below so that we don't try and process an invalid file descriptor.
   */

  fd = (file < 0) ? NULL : &alt_fd_list[file];
 8013e28:	e0bffe17 	ldw	r2,-8(fp)
 8013e2c:	10000816 	blt	r2,zero,8013e50 <fstat+0x40>
 8013e30:	01400304 	movi	r5,12
 8013e34:	e13ffe17 	ldw	r4,-8(fp)
 8013e38:	8013c380 	call	8013c38 <__mulsi3>
 8013e3c:	1007883a 	mov	r3,r2
 8013e40:	008200b4 	movhi	r2,2050
 8013e44:	10af7504 	addi	r2,r2,-16940
 8013e48:	1885883a 	add	r2,r3,r2
 8013e4c:	00000106 	br	8013e54 <fstat+0x44>
 8013e50:	0005883a 	mov	r2,zero
 8013e54:	e0bffd15 	stw	r2,-12(fp)
  
  if (fd)
 8013e58:	e0bffd17 	ldw	r2,-12(fp)
 8013e5c:	10001026 	beq	r2,zero,8013ea0 <fstat+0x90>
  {
    /* Call the drivers fstat() function to fill out the "st" structure. */

    if (fd->dev->fstat)
 8013e60:	e0bffd17 	ldw	r2,-12(fp)
 8013e64:	10800017 	ldw	r2,0(r2)
 8013e68:	10800817 	ldw	r2,32(r2)
 8013e6c:	10000726 	beq	r2,zero,8013e8c <fstat+0x7c>
    {
      return fd->dev->fstat(fd, st);
 8013e70:	e0bffd17 	ldw	r2,-12(fp)
 8013e74:	10800017 	ldw	r2,0(r2)
 8013e78:	10800817 	ldw	r2,32(r2)
 8013e7c:	e17fff17 	ldw	r5,-4(fp)
 8013e80:	e13ffd17 	ldw	r4,-12(fp)
 8013e84:	103ee83a 	callr	r2
 8013e88:	00000a06 	br	8013eb4 <fstat+0xa4>
     * device.
     */
 
    else
    {
      st->st_mode = _IFCHR;
 8013e8c:	e0bfff17 	ldw	r2,-4(fp)
 8013e90:	00c80004 	movi	r3,8192
 8013e94:	10c00115 	stw	r3,4(r2)
      return 0;
 8013e98:	0005883a 	mov	r2,zero
 8013e9c:	00000506 	br	8013eb4 <fstat+0xa4>
    }
  }
  else
  {
    ALT_ERRNO = EBADFD;
 8013ea0:	8013dd40 	call	8013dd4 <alt_get_errno>
 8013ea4:	1007883a 	mov	r3,r2
 8013ea8:	00801444 	movi	r2,81
 8013eac:	18800015 	stw	r2,0(r3)
    return -1;
 8013eb0:	00bfffc4 	movi	r2,-1
  }
}
 8013eb4:	e037883a 	mov	sp,fp
 8013eb8:	dfc00117 	ldw	ra,4(sp)
 8013ebc:	df000017 	ldw	fp,0(sp)
 8013ec0:	dec00204 	addi	sp,sp,8
 8013ec4:	f800283a 	ret

08013ec8 <alt_get_errno>:
#undef errno

extern int errno;

static ALT_INLINE int* alt_get_errno(void)
{
 8013ec8:	defffe04 	addi	sp,sp,-8
 8013ecc:	dfc00115 	stw	ra,4(sp)
 8013ed0:	df000015 	stw	fp,0(sp)
 8013ed4:	d839883a 	mov	fp,sp
  return ((alt_errno) ? alt_errno() : &errno);
 8013ed8:	d0a00a17 	ldw	r2,-32728(gp)
 8013edc:	10000326 	beq	r2,zero,8013eec <alt_get_errno+0x24>
 8013ee0:	d0a00a17 	ldw	r2,-32728(gp)
 8013ee4:	103ee83a 	callr	r2
 8013ee8:	00000106 	br	8013ef0 <alt_get_errno+0x28>
 8013eec:	d0a6e404 	addi	r2,gp,-25712
}
 8013ef0:	e037883a 	mov	sp,fp
 8013ef4:	dfc00117 	ldw	ra,4(sp)
 8013ef8:	df000017 	ldw	fp,0(sp)
 8013efc:	dec00204 	addi	sp,sp,8
 8013f00:	f800283a 	ret

08013f04 <isatty>:
 *
 * ALT_ISATTY is mapped onto the isatty() system call in alt_syscall.h
 */
 
int ALT_ISATTY (int file)
{
 8013f04:	deffed04 	addi	sp,sp,-76
 8013f08:	dfc01215 	stw	ra,72(sp)
 8013f0c:	df001115 	stw	fp,68(sp)
 8013f10:	df001104 	addi	fp,sp,68
 8013f14:	e13fff15 	stw	r4,-4(fp)
   * A common error case is that when the file descriptor was created, the call
   * to open() failed resulting in a negative file descriptor. This is trapped
   * below so that we don't try and process an invalid file descriptor.
   */

  fd = (file < 0) ? NULL : &alt_fd_list[file];
 8013f18:	e0bfff17 	ldw	r2,-4(fp)
 8013f1c:	10000816 	blt	r2,zero,8013f40 <isatty+0x3c>
 8013f20:	01400304 	movi	r5,12
 8013f24:	e13fff17 	ldw	r4,-4(fp)
 8013f28:	8013c380 	call	8013c38 <__mulsi3>
 8013f2c:	1007883a 	mov	r3,r2
 8013f30:	008200b4 	movhi	r2,2050
 8013f34:	10af7504 	addi	r2,r2,-16940
 8013f38:	1885883a 	add	r2,r3,r2
 8013f3c:	00000106 	br	8013f44 <isatty+0x40>
 8013f40:	0005883a 	mov	r2,zero
 8013f44:	e0bfef15 	stw	r2,-68(fp)
  
  if (fd)
 8013f48:	e0bfef17 	ldw	r2,-68(fp)
 8013f4c:	10000e26 	beq	r2,zero,8013f88 <isatty+0x84>
    /*
     * If a device driver does not provide an fstat() function, then it is 
     * treated as a terminal device by default.
     */

    if (!fd->dev->fstat)
 8013f50:	e0bfef17 	ldw	r2,-68(fp)
 8013f54:	10800017 	ldw	r2,0(r2)
 8013f58:	10800817 	ldw	r2,32(r2)
 8013f5c:	1000021e 	bne	r2,zero,8013f68 <isatty+0x64>
    {
      return 1;
 8013f60:	00800044 	movi	r2,1
 8013f64:	00000d06 	br	8013f9c <isatty+0x98>
     * this is called so that the device can identify itself.
     */ 

    else
    {
      fstat (file, &stat);
 8013f68:	e0bff004 	addi	r2,fp,-64
 8013f6c:	100b883a 	mov	r5,r2
 8013f70:	e13fff17 	ldw	r4,-4(fp)
 8013f74:	8013e100 	call	8013e10 <fstat>
      return (stat.st_mode == _IFCHR) ? 1 : 0;
 8013f78:	e0bff117 	ldw	r2,-60(fp)
 8013f7c:	10880020 	cmpeqi	r2,r2,8192
 8013f80:	10803fcc 	andi	r2,r2,255
 8013f84:	00000506 	br	8013f9c <isatty+0x98>
    }
  }
  else
  {
    ALT_ERRNO = EBADFD;
 8013f88:	8013ec80 	call	8013ec8 <alt_get_errno>
 8013f8c:	1007883a 	mov	r3,r2
 8013f90:	00801444 	movi	r2,81
 8013f94:	18800015 	stw	r2,0(r3)
    return 0;
 8013f98:	0005883a 	mov	r2,zero
  }
}
 8013f9c:	e037883a 	mov	sp,fp
 8013fa0:	dfc00117 	ldw	ra,4(sp)
 8013fa4:	df000017 	ldw	fp,0(sp)
 8013fa8:	dec00204 	addi	sp,sp,8
 8013fac:	f800283a 	ret

08013fb0 <alt_load_section>:
 */

static void ALT_INLINE alt_load_section (alt_u32* from, 
                                         alt_u32* to, 
                                         alt_u32* end)
{
 8013fb0:	defffc04 	addi	sp,sp,-16
 8013fb4:	df000315 	stw	fp,12(sp)
 8013fb8:	df000304 	addi	fp,sp,12
 8013fbc:	e13ffd15 	stw	r4,-12(fp)
 8013fc0:	e17ffe15 	stw	r5,-8(fp)
 8013fc4:	e1bfff15 	stw	r6,-4(fp)
  if (to != from)
 8013fc8:	e0fffe17 	ldw	r3,-8(fp)
 8013fcc:	e0bffd17 	ldw	r2,-12(fp)
 8013fd0:	18800c26 	beq	r3,r2,8014004 <alt_load_section+0x54>
  {
    while( to != end )
 8013fd4:	00000806 	br	8013ff8 <alt_load_section+0x48>
    {
      *to++ = *from++;
 8013fd8:	e0bffe17 	ldw	r2,-8(fp)
 8013fdc:	10c00104 	addi	r3,r2,4
 8013fe0:	e0fffe15 	stw	r3,-8(fp)
 8013fe4:	e0fffd17 	ldw	r3,-12(fp)
 8013fe8:	19000104 	addi	r4,r3,4
 8013fec:	e13ffd15 	stw	r4,-12(fp)
 8013ff0:	18c00017 	ldw	r3,0(r3)
 8013ff4:	10c00015 	stw	r3,0(r2)
                                         alt_u32* to, 
                                         alt_u32* end)
{
  if (to != from)
  {
    while( to != end )
 8013ff8:	e0fffe17 	ldw	r3,-8(fp)
 8013ffc:	e0bfff17 	ldw	r2,-4(fp)
 8014000:	18bff51e 	bne	r3,r2,8013fd8 <_gp+0xfffeefd0>
    {
      *to++ = *from++;
    }
  }
}
 8014004:	0001883a 	nop
 8014008:	e037883a 	mov	sp,fp
 801400c:	df000017 	ldw	fp,0(sp)
 8014010:	dec00104 	addi	sp,sp,4
 8014014:	f800283a 	ret

08014018 <alt_load>:
 * there is no bootloader, so this application is responsible for loading to
 * RAM any sections that are required.
 */  

void alt_load (void)
{
 8014018:	defffe04 	addi	sp,sp,-8
 801401c:	dfc00115 	stw	ra,4(sp)
 8014020:	df000015 	stw	fp,0(sp)
 8014024:	d839883a 	mov	fp,sp
  /* 
   * Copy the .rwdata section. 
   */

  alt_load_section (&__flash_rwdata_start, 
 8014028:	018200b4 	movhi	r6,2050
 801402c:	31b42304 	addi	r6,r6,-12148
 8014030:	014200b4 	movhi	r5,2050
 8014034:	296d6004 	addi	r5,r5,-19072
 8014038:	010200b4 	movhi	r4,2050
 801403c:	21342304 	addi	r4,r4,-12148
 8014040:	8013fb00 	call	8013fb0 <alt_load_section>

  /*
   * Copy the exception handler.
   */

  alt_load_section (&__flash_exceptions_start, 
 8014044:	01810034 	movhi	r6,1024
 8014048:	31808c04 	addi	r6,r6,560
 801404c:	01410034 	movhi	r5,1024
 8014050:	29400804 	addi	r5,r5,32
 8014054:	01010034 	movhi	r4,1024
 8014058:	21000804 	addi	r4,r4,32
 801405c:	8013fb00 	call	8013fb0 <alt_load_section>

  /*
   * Copy the .rodata section.
   */

  alt_load_section (&__flash_rodata_start, 
 8014060:	018200b4 	movhi	r6,2050
 8014064:	31ad6004 	addi	r6,r6,-19072
 8014068:	014200b4 	movhi	r5,2050
 801406c:	296bc404 	addi	r5,r5,-20720
 8014070:	010200b4 	movhi	r4,2050
 8014074:	212bc404 	addi	r4,r4,-20720
 8014078:	8013fb00 	call	8013fb0 <alt_load_section>
  
  /*
   * Now ensure that the caches are in synch.
   */
  
  alt_dcache_flush_all();
 801407c:	8019f880 	call	8019f88 <alt_dcache_flush_all>
  alt_icache_flush_all();
 8014080:	801a3640 	call	801a364 <alt_icache_flush_all>
}
 8014084:	0001883a 	nop
 8014088:	e037883a 	mov	sp,fp
 801408c:	dfc00117 	ldw	ra,4(sp)
 8014090:	df000017 	ldw	fp,0(sp)
 8014094:	dec00204 	addi	sp,sp,8
 8014098:	f800283a 	ret

0801409c <alt_get_errno>:
#undef errno

extern int errno;

static ALT_INLINE int* alt_get_errno(void)
{
 801409c:	defffe04 	addi	sp,sp,-8
 80140a0:	dfc00115 	stw	ra,4(sp)
 80140a4:	df000015 	stw	fp,0(sp)
 80140a8:	d839883a 	mov	fp,sp
  return ((alt_errno) ? alt_errno() : &errno);
 80140ac:	d0a00a17 	ldw	r2,-32728(gp)
 80140b0:	10000326 	beq	r2,zero,80140c0 <alt_get_errno+0x24>
 80140b4:	d0a00a17 	ldw	r2,-32728(gp)
 80140b8:	103ee83a 	callr	r2
 80140bc:	00000106 	br	80140c4 <alt_get_errno+0x28>
 80140c0:	d0a6e404 	addi	r2,gp,-25712
}
 80140c4:	e037883a 	mov	sp,fp
 80140c8:	dfc00117 	ldw	ra,4(sp)
 80140cc:	df000017 	ldw	fp,0(sp)
 80140d0:	dec00204 	addi	sp,sp,8
 80140d4:	f800283a 	ret

080140d8 <lseek>:
 * ALT_LSEEK is mapped onto the lseek() system call in alt_syscall.h
 *
 */

off_t ALT_LSEEK (int file, off_t ptr, int dir)
{
 80140d8:	defff904 	addi	sp,sp,-28
 80140dc:	dfc00615 	stw	ra,24(sp)
 80140e0:	df000515 	stw	fp,20(sp)
 80140e4:	df000504 	addi	fp,sp,20
 80140e8:	e13ffd15 	stw	r4,-12(fp)
 80140ec:	e17ffe15 	stw	r5,-8(fp)
 80140f0:	e1bfff15 	stw	r6,-4(fp)
  alt_fd* fd;
  off_t   rc = 0; 
 80140f4:	e03ffb15 	stw	zero,-20(fp)
   * A common error case is that when the file descriptor was created, the call
   * to open() failed resulting in a negative file descriptor. This is trapped
   * below so that we don't try and process an invalid file descriptor.
   */

  fd = (file < 0) ? NULL : &alt_fd_list[file];
 80140f8:	e0bffd17 	ldw	r2,-12(fp)
 80140fc:	10000816 	blt	r2,zero,8014120 <lseek+0x48>
 8014100:	01400304 	movi	r5,12
 8014104:	e13ffd17 	ldw	r4,-12(fp)
 8014108:	8013c380 	call	8013c38 <__mulsi3>
 801410c:	1007883a 	mov	r3,r2
 8014110:	008200b4 	movhi	r2,2050
 8014114:	10af7504 	addi	r2,r2,-16940
 8014118:	1885883a 	add	r2,r3,r2
 801411c:	00000106 	br	8014124 <lseek+0x4c>
 8014120:	0005883a 	mov	r2,zero
 8014124:	e0bffc15 	stw	r2,-16(fp)
  
  if (fd) 
 8014128:	e0bffc17 	ldw	r2,-16(fp)
 801412c:	10001026 	beq	r2,zero,8014170 <lseek+0x98>
    /*
     * If the device driver provides an implementation of the lseek() function,
     * then call that to process the request.
     */
 
    if (fd->dev->lseek)
 8014130:	e0bffc17 	ldw	r2,-16(fp)
 8014134:	10800017 	ldw	r2,0(r2)
 8014138:	10800717 	ldw	r2,28(r2)
 801413c:	10000926 	beq	r2,zero,8014164 <lseek+0x8c>
    {
      rc = fd->dev->lseek(fd, ptr, dir);
 8014140:	e0bffc17 	ldw	r2,-16(fp)
 8014144:	10800017 	ldw	r2,0(r2)
 8014148:	10800717 	ldw	r2,28(r2)
 801414c:	e1bfff17 	ldw	r6,-4(fp)
 8014150:	e17ffe17 	ldw	r5,-8(fp)
 8014154:	e13ffc17 	ldw	r4,-16(fp)
 8014158:	103ee83a 	callr	r2
 801415c:	e0bffb15 	stw	r2,-20(fp)
 8014160:	00000506 	br	8014178 <lseek+0xa0>
     * Otherwise return an error.
     */

    else
    {
      rc = -ENOTSUP;
 8014164:	00bfde84 	movi	r2,-134
 8014168:	e0bffb15 	stw	r2,-20(fp)
 801416c:	00000206 	br	8014178 <lseek+0xa0>
    }
  }
  else  
  {
    rc = -EBADFD;
 8014170:	00bfebc4 	movi	r2,-81
 8014174:	e0bffb15 	stw	r2,-20(fp)
  }

  if (rc < 0)
 8014178:	e0bffb17 	ldw	r2,-20(fp)
 801417c:	1000070e 	bge	r2,zero,801419c <lseek+0xc4>
  {
    ALT_ERRNO = -rc;
 8014180:	801409c0 	call	801409c <alt_get_errno>
 8014184:	1007883a 	mov	r3,r2
 8014188:	e0bffb17 	ldw	r2,-20(fp)
 801418c:	0085c83a 	sub	r2,zero,r2
 8014190:	18800015 	stw	r2,0(r3)
    rc = -1;
 8014194:	00bfffc4 	movi	r2,-1
 8014198:	e0bffb15 	stw	r2,-20(fp)
  }

  return rc;
 801419c:	e0bffb17 	ldw	r2,-20(fp)
}
 80141a0:	e037883a 	mov	sp,fp
 80141a4:	dfc00117 	ldw	ra,4(sp)
 80141a8:	df000017 	ldw	fp,0(sp)
 80141ac:	dec00204 	addi	sp,sp,8
 80141b0:	f800283a 	ret

080141b4 <alt_main>:
 * devices/filesystems/components in the system; and call the entry point for
 * the users application, i.e. main().
 */

void alt_main (void)
{
 80141b4:	defffd04 	addi	sp,sp,-12
 80141b8:	dfc00215 	stw	ra,8(sp)
 80141bc:	df000115 	stw	fp,4(sp)
 80141c0:	df000104 	addi	fp,sp,4
#endif

  /* ALT LOG - please see HAL/sys/alt_log_printf.h for details */
  ALT_LOG_PRINT_BOOT("[alt_main.c] Entering alt_main, calling alt_irq_init.\r\n");
  /* Initialize the interrupt controller. */
  alt_irq_init (NULL);
 80141c4:	0009883a 	mov	r4,zero
 80141c8:	8014b380 	call	8014b38 <alt_irq_init>

  /* Initialize the operating system */
  ALT_LOG_PRINT_BOOT("[alt_main.c] Done alt_irq_init, calling alt_os_init.\r\n");
  ALT_OS_INIT();
 80141cc:	0001883a 	nop
  ALT_LOG_PRINT_BOOT("[alt_main.c] Done OS Init, calling alt_sem_create.\r\n");
  ALT_SEM_CREATE (&alt_fd_list_lock, 1);

  /* Initialize the device drivers/software components. */
  ALT_LOG_PRINT_BOOT("[alt_main.c] Calling alt_sys_init.\r\n");
  alt_sys_init();
 80141d0:	8014b700 	call	8014b70 <alt_sys_init>
   * devices be present (not equal to /dev/null) and if direct drivers
   * aren't being used.
   */

    ALT_LOG_PRINT_BOOT("[alt_main.c] Redirecting IO.\r\n");
    alt_io_redirect(ALT_STDOUT, ALT_STDIN, ALT_STDERR);
 80141d4:	018200b4 	movhi	r6,2050
 80141d8:	31ad4c04 	addi	r6,r6,-19152
 80141dc:	014200b4 	movhi	r5,2050
 80141e0:	296d4c04 	addi	r5,r5,-19152
 80141e4:	010200b4 	movhi	r4,2050
 80141e8:	212d4c04 	addi	r4,r4,-19152
 80141ec:	801a7080 	call	801a708 <alt_io_redirect>
  ALT_LOG_PRINT_BOOT("[alt_main.c] Calling main.\r\n");

#ifdef ALT_NO_EXIT
  main (alt_argc, alt_argv, alt_envp);
#else
  result = main (alt_argc, alt_argv, alt_envp);
 80141f0:	d0a6e817 	ldw	r2,-25696(gp)
 80141f4:	d0e6e917 	ldw	r3,-25692(gp)
 80141f8:	d126ea17 	ldw	r4,-25688(gp)
 80141fc:	200d883a 	mov	r6,r4
 8014200:	180b883a 	mov	r5,r3
 8014204:	1009883a 	mov	r4,r2
 8014208:	801035c0 	call	801035c <main>
 801420c:	e0bfff15 	stw	r2,-4(fp)
  close(STDOUT_FILENO);
 8014210:	01000044 	movi	r4,1
 8014214:	8013c9c0 	call	8013c9c <close>
  exit (result);
 8014218:	e13fff17 	ldw	r4,-4(fp)
 801421c:	80105080 	call	8010508 <exit>

08014220 <__malloc_lock>:
 * configuration is single threaded, so there is nothing to do here. Note that 
 * this requires that malloc is never called by an interrupt service routine.
 */

void __malloc_lock ( struct _reent *_r )
{
 8014220:	defffe04 	addi	sp,sp,-8
 8014224:	df000115 	stw	fp,4(sp)
 8014228:	df000104 	addi	fp,sp,4
 801422c:	e13fff15 	stw	r4,-4(fp)
}
 8014230:	0001883a 	nop
 8014234:	e037883a 	mov	sp,fp
 8014238:	df000017 	ldw	fp,0(sp)
 801423c:	dec00104 	addi	sp,sp,4
 8014240:	f800283a 	ret

08014244 <__malloc_unlock>:
/*
 *
 */

void __malloc_unlock ( struct _reent *_r )
{
 8014244:	defffe04 	addi	sp,sp,-8
 8014248:	df000115 	stw	fp,4(sp)
 801424c:	df000104 	addi	fp,sp,4
 8014250:	e13fff15 	stw	r4,-4(fp)
}
 8014254:	0001883a 	nop
 8014258:	e037883a 	mov	sp,fp
 801425c:	df000017 	ldw	fp,0(sp)
 8014260:	dec00104 	addi	sp,sp,4
 8014264:	f800283a 	ret

08014268 <alt_get_errno>:
#undef errno

extern int errno;

static ALT_INLINE int* alt_get_errno(void)
{
 8014268:	defffe04 	addi	sp,sp,-8
 801426c:	dfc00115 	stw	ra,4(sp)
 8014270:	df000015 	stw	fp,0(sp)
 8014274:	d839883a 	mov	fp,sp
  return ((alt_errno) ? alt_errno() : &errno);
 8014278:	d0a00a17 	ldw	r2,-32728(gp)
 801427c:	10000326 	beq	r2,zero,801428c <alt_get_errno+0x24>
 8014280:	d0a00a17 	ldw	r2,-32728(gp)
 8014284:	103ee83a 	callr	r2
 8014288:	00000106 	br	8014290 <alt_get_errno+0x28>
 801428c:	d0a6e404 	addi	r2,gp,-25712
}
 8014290:	e037883a 	mov	sp,fp
 8014294:	dfc00117 	ldw	ra,4(sp)
 8014298:	df000017 	ldw	fp,0(sp)
 801429c:	dec00204 	addi	sp,sp,8
 80142a0:	f800283a 	ret

080142a4 <alt_file_locked>:
 * performed for devices. Filesystems are required to handle the ioctl() call
 * themselves, and report the error from the filesystems open() function. 
 */ 

static int alt_file_locked (alt_fd* fd)
{
 80142a4:	defffb04 	addi	sp,sp,-20
 80142a8:	dfc00415 	stw	ra,16(sp)
 80142ac:	df000315 	stw	fp,12(sp)
 80142b0:	dc000215 	stw	r16,8(sp)
 80142b4:	df000304 	addi	fp,sp,12
 80142b8:	e13ffe15 	stw	r4,-8(fp)

  /*
   * Mark the file descriptor as belonging to a device.
   */

  fd->fd_flags |= ALT_FD_DEV;
 80142bc:	e0bffe17 	ldw	r2,-8(fp)
 80142c0:	10800217 	ldw	r2,8(r2)
 80142c4:	10d00034 	orhi	r3,r2,16384
 80142c8:	e0bffe17 	ldw	r2,-8(fp)
 80142cc:	10c00215 	stw	r3,8(r2)
  /*
   * Loop through all current file descriptors searching for one that's locked
   * for exclusive access. If a match is found, generate an error.
   */

  for (i = 0; i <= alt_max_fd; i++)
 80142d0:	e03ffd15 	stw	zero,-12(fp)
 80142d4:	00002306 	br	8014364 <alt_file_locked+0xc0>
  {
    if ((alt_fd_list[i].dev == fd->dev) &&
 80142d8:	040200b4 	movhi	r16,2050
 80142dc:	842f7504 	addi	r16,r16,-16940
 80142e0:	e0bffd17 	ldw	r2,-12(fp)
 80142e4:	01400304 	movi	r5,12
 80142e8:	1009883a 	mov	r4,r2
 80142ec:	8013c380 	call	8013c38 <__mulsi3>
 80142f0:	8085883a 	add	r2,r16,r2
 80142f4:	10c00017 	ldw	r3,0(r2)
 80142f8:	e0bffe17 	ldw	r2,-8(fp)
 80142fc:	10800017 	ldw	r2,0(r2)
 8014300:	1880151e 	bne	r3,r2,8014358 <alt_file_locked+0xb4>
        (alt_fd_list[i].fd_flags & ALT_FD_EXCL) &&
 8014304:	040200b4 	movhi	r16,2050
 8014308:	842f7504 	addi	r16,r16,-16940
 801430c:	e0bffd17 	ldw	r2,-12(fp)
 8014310:	01400304 	movi	r5,12
 8014314:	1009883a 	mov	r4,r2
 8014318:	8013c380 	call	8013c38 <__mulsi3>
 801431c:	8085883a 	add	r2,r16,r2
 8014320:	10800204 	addi	r2,r2,8
 8014324:	10800017 	ldw	r2,0(r2)
   * for exclusive access. If a match is found, generate an error.
   */

  for (i = 0; i <= alt_max_fd; i++)
  {
    if ((alt_fd_list[i].dev == fd->dev) &&
 8014328:	10000b0e 	bge	r2,zero,8014358 <alt_file_locked+0xb4>
        (alt_fd_list[i].fd_flags & ALT_FD_EXCL) &&
        (&alt_fd_list[i] != fd))
 801432c:	01400304 	movi	r5,12
 8014330:	e13ffd17 	ldw	r4,-12(fp)
 8014334:	8013c380 	call	8013c38 <__mulsi3>
 8014338:	1007883a 	mov	r3,r2
 801433c:	008200b4 	movhi	r2,2050
 8014340:	10af7504 	addi	r2,r2,-16940
 8014344:	1887883a 	add	r3,r3,r2
   */

  for (i = 0; i <= alt_max_fd; i++)
  {
    if ((alt_fd_list[i].dev == fd->dev) &&
        (alt_fd_list[i].fd_flags & ALT_FD_EXCL) &&
 8014348:	e0bffe17 	ldw	r2,-8(fp)
 801434c:	18800226 	beq	r3,r2,8014358 <alt_file_locked+0xb4>
        (&alt_fd_list[i] != fd))
    {
      return -EACCES;
 8014350:	00bffcc4 	movi	r2,-13
 8014354:	00000806 	br	8014378 <alt_file_locked+0xd4>
  /*
   * Loop through all current file descriptors searching for one that's locked
   * for exclusive access. If a match is found, generate an error.
   */

  for (i = 0; i <= alt_max_fd; i++)
 8014358:	e0bffd17 	ldw	r2,-12(fp)
 801435c:	10800044 	addi	r2,r2,1
 8014360:	e0bffd15 	stw	r2,-12(fp)
 8014364:	d0a00917 	ldw	r2,-32732(gp)
 8014368:	1007883a 	mov	r3,r2
 801436c:	e0bffd17 	ldw	r2,-12(fp)
 8014370:	18bfd92e 	bgeu	r3,r2,80142d8 <_gp+0xfffef2d0>
    }
  }
  
  /* The device is not locked */
 
  return 0;
 8014374:	0005883a 	mov	r2,zero
}
 8014378:	e6ffff04 	addi	sp,fp,-4
 801437c:	dfc00217 	ldw	ra,8(sp)
 8014380:	df000117 	ldw	fp,4(sp)
 8014384:	dc000017 	ldw	r16,0(sp)
 8014388:	dec00304 	addi	sp,sp,12
 801438c:	f800283a 	ret

08014390 <open>:
 *
 * ALT_OPEN is mapped onto the open() system call in alt_syscall.h
 */
 
int ALT_OPEN (const char* file, int flags, int mode)
{ 
 8014390:	defff604 	addi	sp,sp,-40
 8014394:	dfc00915 	stw	ra,36(sp)
 8014398:	df000815 	stw	fp,32(sp)
 801439c:	df000804 	addi	fp,sp,32
 80143a0:	e13ffd15 	stw	r4,-12(fp)
 80143a4:	e17ffe15 	stw	r5,-8(fp)
 80143a8:	e1bfff15 	stw	r6,-4(fp)
  alt_dev* dev;
  alt_fd*  fd;
  int index  = -1;
 80143ac:	00bfffc4 	movi	r2,-1
 80143b0:	e0bff915 	stw	r2,-28(fp)
  int status = -ENODEV;
 80143b4:	00bffb44 	movi	r2,-19
 80143b8:	e0bffa15 	stw	r2,-24(fp)
  int isafs = 0;
 80143bc:	e03ffb15 	stw	zero,-20(fp)
  /* 
   * Check the device list, to see if a device with a matching name is 
   * registered.
   */
  
  if (!(dev = alt_find_dev (file, &alt_dev_list)))
 80143c0:	d1600704 	addi	r5,gp,-32740
 80143c4:	e13ffd17 	ldw	r4,-12(fp)
 80143c8:	801a0880 	call	801a088 <alt_find_dev>
 80143cc:	e0bff815 	stw	r2,-32(fp)
 80143d0:	e0bff817 	ldw	r2,-32(fp)
 80143d4:	1000051e 	bne	r2,zero,80143ec <open+0x5c>
  {
    /* No matching device, so try the filesystem list */

    dev   = alt_find_file (file);
 80143d8:	e13ffd17 	ldw	r4,-12(fp)
 80143dc:	801a1180 	call	801a118 <alt_find_file>
 80143e0:	e0bff815 	stw	r2,-32(fp)
    isafs = 1;
 80143e4:	00800044 	movi	r2,1
 80143e8:	e0bffb15 	stw	r2,-20(fp)

  /* 
   * If a matching device or filesystem is found, allocate a file descriptor. 
   */

  if (dev)
 80143ec:	e0bff817 	ldw	r2,-32(fp)
 80143f0:	10002b26 	beq	r2,zero,80144a0 <open+0x110>
  {
    if ((index = alt_get_fd (dev)) < 0)
 80143f4:	e13ff817 	ldw	r4,-32(fp)
 80143f8:	801a2a00 	call	801a2a0 <alt_get_fd>
 80143fc:	e0bff915 	stw	r2,-28(fp)
 8014400:	e0bff917 	ldw	r2,-28(fp)
 8014404:	1000030e 	bge	r2,zero,8014414 <open+0x84>
    {
      status = index;
 8014408:	e0bff917 	ldw	r2,-28(fp)
 801440c:	e0bffa15 	stw	r2,-24(fp)
 8014410:	00002506 	br	80144a8 <open+0x118>
    }
    else
    {
      fd = &alt_fd_list[index];
 8014414:	01400304 	movi	r5,12
 8014418:	e13ff917 	ldw	r4,-28(fp)
 801441c:	8013c380 	call	8013c38 <__mulsi3>
 8014420:	1007883a 	mov	r3,r2
 8014424:	008200b4 	movhi	r2,2050
 8014428:	10af7504 	addi	r2,r2,-16940
 801442c:	1885883a 	add	r2,r3,r2
 8014430:	e0bffc15 	stw	r2,-16(fp)
      fd->fd_flags = (flags & ~ALT_FD_FLAGS_MASK);
 8014434:	e0fffe17 	ldw	r3,-8(fp)
 8014438:	00900034 	movhi	r2,16384
 801443c:	10bfffc4 	addi	r2,r2,-1
 8014440:	1886703a 	and	r3,r3,r2
 8014444:	e0bffc17 	ldw	r2,-16(fp)
 8014448:	10c00215 	stw	r3,8(r2)
      
      /* If this is a device, ensure it isn't already locked */

      if (isafs || ((status = alt_file_locked (fd)) >= 0))
 801444c:	e0bffb17 	ldw	r2,-20(fp)
 8014450:	1000051e 	bne	r2,zero,8014468 <open+0xd8>
 8014454:	e13ffc17 	ldw	r4,-16(fp)
 8014458:	80142a40 	call	80142a4 <alt_file_locked>
 801445c:	e0bffa15 	stw	r2,-24(fp)
 8014460:	e0bffa17 	ldw	r2,-24(fp)
 8014464:	10001016 	blt	r2,zero,80144a8 <open+0x118>
        /* 
         * If the device or filesystem provides an open() callback function,
         * call it now to perform any device/filesystem specific operations.
         */
    
        status = (dev->open) ? dev->open(fd, file, flags, mode): 0;
 8014468:	e0bff817 	ldw	r2,-32(fp)
 801446c:	10800317 	ldw	r2,12(r2)
 8014470:	10000826 	beq	r2,zero,8014494 <open+0x104>
 8014474:	e0bff817 	ldw	r2,-32(fp)
 8014478:	10800317 	ldw	r2,12(r2)
 801447c:	e1ffff17 	ldw	r7,-4(fp)
 8014480:	e1bffe17 	ldw	r6,-8(fp)
 8014484:	e17ffd17 	ldw	r5,-12(fp)
 8014488:	e13ffc17 	ldw	r4,-16(fp)
 801448c:	103ee83a 	callr	r2
 8014490:	00000106 	br	8014498 <open+0x108>
 8014494:	0005883a 	mov	r2,zero
 8014498:	e0bffa15 	stw	r2,-24(fp)
 801449c:	00000206 	br	80144a8 <open+0x118>
      }
    }
  }
  else
  {
    status = -ENODEV;
 80144a0:	00bffb44 	movi	r2,-19
 80144a4:	e0bffa15 	stw	r2,-24(fp)
  }

  /* Allocation failed, so clean up and return an error */ 

  if (status < 0)
 80144a8:	e0bffa17 	ldw	r2,-24(fp)
 80144ac:	1000090e 	bge	r2,zero,80144d4 <open+0x144>
  {
    alt_release_fd (index);  
 80144b0:	e13ff917 	ldw	r4,-28(fp)
 80144b4:	80148940 	call	8014894 <alt_release_fd>
    ALT_ERRNO = -status;
 80144b8:	80142680 	call	8014268 <alt_get_errno>
 80144bc:	1007883a 	mov	r3,r2
 80144c0:	e0bffa17 	ldw	r2,-24(fp)
 80144c4:	0085c83a 	sub	r2,zero,r2
 80144c8:	18800015 	stw	r2,0(r3)
    return -1;
 80144cc:	00bfffc4 	movi	r2,-1
 80144d0:	00000106 	br	80144d8 <open+0x148>
  }
  
  /* return the reference upon success */

  return index;
 80144d4:	e0bff917 	ldw	r2,-28(fp)
}
 80144d8:	e037883a 	mov	sp,fp
 80144dc:	dfc00117 	ldw	ra,4(sp)
 80144e0:	df000017 	ldw	fp,0(sp)
 80144e4:	dec00204 	addi	sp,sp,8
 80144e8:	f800283a 	ret

080144ec <alt_printf>:
/* 
 * ALT printf function 
 */
void 
alt_printf(const char* fmt, ... )
{
 80144ec:	defff204 	addi	sp,sp,-56
 80144f0:	dfc00a15 	stw	ra,40(sp)
 80144f4:	df000915 	stw	fp,36(sp)
 80144f8:	df000904 	addi	fp,sp,36
 80144fc:	e13fff15 	stw	r4,-4(fp)
 8014500:	e1400215 	stw	r5,8(fp)
 8014504:	e1800315 	stw	r6,12(fp)
 8014508:	e1c00415 	stw	r7,16(fp)
	va_list args;
	va_start(args, fmt);
 801450c:	e0800204 	addi	r2,fp,8
 8014510:	e0bffe15 	stw	r2,-8(fp)
    const char *w;
    char c;

    /* Process format string. */
    w = fmt;
 8014514:	e0bfff17 	ldw	r2,-4(fp)
 8014518:	e0bff715 	stw	r2,-36(fp)
    while ((c = *w++) != 0)
 801451c:	00006f06 	br	80146dc <alt_printf+0x1f0>
    {
        /* If not a format escape character, just print  */
        /* character.  Otherwise, process format string. */
        if (c != '%')
 8014520:	e0bff807 	ldb	r2,-32(fp)
 8014524:	10800960 	cmpeqi	r2,r2,37
 8014528:	1000041e 	bne	r2,zero,801453c <alt_printf+0x50>
        {
            alt_putchar(c);
 801452c:	e0bff807 	ldb	r2,-32(fp)
 8014530:	1009883a 	mov	r4,r2
 8014534:	80147180 	call	8014718 <alt_putchar>
 8014538:	00006806 	br	80146dc <alt_printf+0x1f0>
        }
        else
        {
            /* Get format character.  If none     */
            /* available, processing is complete. */
            if ((c = *w++) != 0)
 801453c:	e0bff717 	ldw	r2,-36(fp)
 8014540:	10c00044 	addi	r3,r2,1
 8014544:	e0fff715 	stw	r3,-36(fp)
 8014548:	10800003 	ldbu	r2,0(r2)
 801454c:	e0bff805 	stb	r2,-32(fp)
 8014550:	e0bff807 	ldb	r2,-32(fp)
 8014554:	10006926 	beq	r2,zero,80146fc <alt_printf+0x210>
            {
                if (c == '%')
 8014558:	e0bff807 	ldb	r2,-32(fp)
 801455c:	10800958 	cmpnei	r2,r2,37
 8014560:	1000041e 	bne	r2,zero,8014574 <alt_printf+0x88>
                {
                    /* Process "%" escape sequence. */
                    alt_putchar(c);
 8014564:	e0bff807 	ldb	r2,-32(fp)
 8014568:	1009883a 	mov	r4,r2
 801456c:	80147180 	call	8014718 <alt_putchar>
 8014570:	00005a06 	br	80146dc <alt_printf+0x1f0>
                } 
                else if (c == 'c')
 8014574:	e0bff807 	ldb	r2,-32(fp)
 8014578:	108018d8 	cmpnei	r2,r2,99
 801457c:	1000081e 	bne	r2,zero,80145a0 <alt_printf+0xb4>
                {
                    int v = va_arg(args, int);
 8014580:	e0bffe17 	ldw	r2,-8(fp)
 8014584:	10c00104 	addi	r3,r2,4
 8014588:	e0fffe15 	stw	r3,-8(fp)
 801458c:	10800017 	ldw	r2,0(r2)
 8014590:	e0bffd15 	stw	r2,-12(fp)
                    alt_putchar(v);
 8014594:	e13ffd17 	ldw	r4,-12(fp)
 8014598:	80147180 	call	8014718 <alt_putchar>
 801459c:	00004f06 	br	80146dc <alt_printf+0x1f0>
                }
                else if (c == 'x')
 80145a0:	e0bff807 	ldb	r2,-32(fp)
 80145a4:	10801e18 	cmpnei	r2,r2,120
 80145a8:	1000341e 	bne	r2,zero,801467c <alt_printf+0x190>
                {
                    /* Process hexadecimal number format. */
                    unsigned long v = va_arg(args, unsigned long);
 80145ac:	e0bffe17 	ldw	r2,-8(fp)
 80145b0:	10c00104 	addi	r3,r2,4
 80145b4:	e0fffe15 	stw	r3,-8(fp)
 80145b8:	10800017 	ldw	r2,0(r2)
 80145bc:	e0bffb15 	stw	r2,-20(fp)
                    unsigned long digit;
                    int digit_shift;

                    /* If the number value is zero, just print and continue. */
                    if (v == 0)
 80145c0:	e0bffb17 	ldw	r2,-20(fp)
 80145c4:	1000031e 	bne	r2,zero,80145d4 <alt_printf+0xe8>
                    {
                        alt_putchar('0');
 80145c8:	01000c04 	movi	r4,48
 80145cc:	80147180 	call	8014718 <alt_putchar>
                        continue;
 80145d0:	00004206 	br	80146dc <alt_printf+0x1f0>
                    }

                    /* Find first non-zero digit. */
                    digit_shift = 28;
 80145d4:	00800704 	movi	r2,28
 80145d8:	e0bff915 	stw	r2,-28(fp)
                    while (!(v & (0xF << digit_shift)))
 80145dc:	00000306 	br	80145ec <alt_printf+0x100>
                        digit_shift -= 4;
 80145e0:	e0bff917 	ldw	r2,-28(fp)
 80145e4:	10bfff04 	addi	r2,r2,-4
 80145e8:	e0bff915 	stw	r2,-28(fp)
                        continue;
                    }

                    /* Find first non-zero digit. */
                    digit_shift = 28;
                    while (!(v & (0xF << digit_shift)))
 80145ec:	00c003c4 	movi	r3,15
 80145f0:	e0bff917 	ldw	r2,-28(fp)
 80145f4:	1884983a 	sll	r2,r3,r2
 80145f8:	1007883a 	mov	r3,r2
 80145fc:	e0bffb17 	ldw	r2,-20(fp)
 8014600:	1884703a 	and	r2,r3,r2
 8014604:	103ff626 	beq	r2,zero,80145e0 <_gp+0xfffef5d8>
                        digit_shift -= 4;

                    /* Print digits. */
                    for (; digit_shift >= 0; digit_shift -= 4)
 8014608:	00001906 	br	8014670 <alt_printf+0x184>
                    {
                        digit = (v & (0xF << digit_shift)) >> digit_shift;
 801460c:	00c003c4 	movi	r3,15
 8014610:	e0bff917 	ldw	r2,-28(fp)
 8014614:	1884983a 	sll	r2,r3,r2
 8014618:	1007883a 	mov	r3,r2
 801461c:	e0bffb17 	ldw	r2,-20(fp)
 8014620:	1886703a 	and	r3,r3,r2
 8014624:	e0bff917 	ldw	r2,-28(fp)
 8014628:	1884d83a 	srl	r2,r3,r2
 801462c:	e0bffc15 	stw	r2,-16(fp)
                        if (digit <= 9)
 8014630:	e0bffc17 	ldw	r2,-16(fp)
 8014634:	108002a8 	cmpgeui	r2,r2,10
 8014638:	1000041e 	bne	r2,zero,801464c <alt_printf+0x160>
                            c = '0' + digit;
 801463c:	e0bffc17 	ldw	r2,-16(fp)
 8014640:	10800c04 	addi	r2,r2,48
 8014644:	e0bff805 	stb	r2,-32(fp)
 8014648:	00000306 	br	8014658 <alt_printf+0x16c>
                        else
                            c = 'a' + digit - 10;
 801464c:	e0bffc17 	ldw	r2,-16(fp)
 8014650:	108015c4 	addi	r2,r2,87
 8014654:	e0bff805 	stb	r2,-32(fp)
                        alt_putchar(c);
 8014658:	e0bff807 	ldb	r2,-32(fp)
 801465c:	1009883a 	mov	r4,r2
 8014660:	80147180 	call	8014718 <alt_putchar>
                    digit_shift = 28;
                    while (!(v & (0xF << digit_shift)))
                        digit_shift -= 4;

                    /* Print digits. */
                    for (; digit_shift >= 0; digit_shift -= 4)
 8014664:	e0bff917 	ldw	r2,-28(fp)
 8014668:	10bfff04 	addi	r2,r2,-4
 801466c:	e0bff915 	stw	r2,-28(fp)
 8014670:	e0bff917 	ldw	r2,-28(fp)
 8014674:	103fe50e 	bge	r2,zero,801460c <_gp+0xfffef604>
 8014678:	00001806 	br	80146dc <alt_printf+0x1f0>
                        else
                            c = 'a' + digit - 10;
                        alt_putchar(c);
                    }
                }
                else if (c == 's')
 801467c:	e0bff807 	ldb	r2,-32(fp)
 8014680:	10801cd8 	cmpnei	r2,r2,115
 8014684:	1000151e 	bne	r2,zero,80146dc <alt_printf+0x1f0>
                {
                    /* Process string format. */
                    char *s = va_arg(args, char *);
 8014688:	e0bffe17 	ldw	r2,-8(fp)
 801468c:	10c00104 	addi	r3,r2,4
 8014690:	e0fffe15 	stw	r3,-8(fp)
 8014694:	10800017 	ldw	r2,0(r2)
 8014698:	e0bffa15 	stw	r2,-24(fp)

                    while(*s)
 801469c:	00000906 	br	80146c4 <alt_printf+0x1d8>
                      alt_putchar(*s++);
 80146a0:	e0bffa17 	ldw	r2,-24(fp)
 80146a4:	10c00044 	addi	r3,r2,1
 80146a8:	e0fffa15 	stw	r3,-24(fp)
 80146ac:	10800003 	ldbu	r2,0(r2)
 80146b0:	10803fcc 	andi	r2,r2,255
 80146b4:	1080201c 	xori	r2,r2,128
 80146b8:	10bfe004 	addi	r2,r2,-128
 80146bc:	1009883a 	mov	r4,r2
 80146c0:	80147180 	call	8014718 <alt_putchar>
                else if (c == 's')
                {
                    /* Process string format. */
                    char *s = va_arg(args, char *);

                    while(*s)
 80146c4:	e0bffa17 	ldw	r2,-24(fp)
 80146c8:	10800003 	ldbu	r2,0(r2)
 80146cc:	10803fcc 	andi	r2,r2,255
 80146d0:	1080201c 	xori	r2,r2,128
 80146d4:	10bfe004 	addi	r2,r2,-128
 80146d8:	103ff11e 	bne	r2,zero,80146a0 <_gp+0xfffef698>
    const char *w;
    char c;

    /* Process format string. */
    w = fmt;
    while ((c = *w++) != 0)
 80146dc:	e0bff717 	ldw	r2,-36(fp)
 80146e0:	10c00044 	addi	r3,r2,1
 80146e4:	e0fff715 	stw	r3,-36(fp)
 80146e8:	10800003 	ldbu	r2,0(r2)
 80146ec:	e0bff805 	stb	r2,-32(fp)
 80146f0:	e0bff807 	ldb	r2,-32(fp)
 80146f4:	103f8a1e 	bne	r2,zero,8014520 <_gp+0xfffef518>
        }
    }
#ifdef ALT_SEMIHOSTING
    alt_putbufflush();
#endif
}
 80146f8:	00000106 	br	8014700 <alt_printf+0x214>
                      alt_putchar(*s++);
                }
            }
            else
            {
                break;
 80146fc:	0001883a 	nop
        }
    }
#ifdef ALT_SEMIHOSTING
    alt_putbufflush();
#endif
}
 8014700:	0001883a 	nop
 8014704:	e037883a 	mov	sp,fp
 8014708:	dfc00117 	ldw	ra,4(sp)
 801470c:	df000017 	ldw	fp,0(sp)
 8014710:	dec00504 	addi	sp,sp,20
 8014714:	f800283a 	ret

08014718 <alt_putchar>:
 * Uses the ALT_DRIVER_WRITE() macro to call directly to driver if available.
 * Otherwise, uses newlib provided putchar() routine.
 */
int 
alt_putchar(int c)
{
 8014718:	defffd04 	addi	sp,sp,-12
 801471c:	dfc00215 	stw	ra,8(sp)
 8014720:	df000115 	stw	fp,4(sp)
 8014724:	df000104 	addi	fp,sp,4
 8014728:	e13fff15 	stw	r4,-4(fp)
    if (ALT_DRIVER_WRITE(ALT_STDOUT_DEV, &c1, 1, 0) == -1) {
        return -1;
    }
    return c;
#else
    return putchar(c);
 801472c:	d0a00117 	ldw	r2,-32764(gp)
 8014730:	10800217 	ldw	r2,8(r2)
 8014734:	100b883a 	mov	r5,r2
 8014738:	e13fff17 	ldw	r4,-4(fp)
 801473c:	801ab040 	call	801ab04 <putc>
#endif
#endif
}
 8014740:	e037883a 	mov	sp,fp
 8014744:	dfc00117 	ldw	ra,4(sp)
 8014748:	df000017 	ldw	fp,0(sp)
 801474c:	dec00204 	addi	sp,sp,8
 8014750:	f800283a 	ret

08014754 <alt_get_errno>:
#undef errno

extern int errno;

static ALT_INLINE int* alt_get_errno(void)
{
 8014754:	defffe04 	addi	sp,sp,-8
 8014758:	dfc00115 	stw	ra,4(sp)
 801475c:	df000015 	stw	fp,0(sp)
 8014760:	d839883a 	mov	fp,sp
  return ((alt_errno) ? alt_errno() : &errno);
 8014764:	d0a00a17 	ldw	r2,-32728(gp)
 8014768:	10000326 	beq	r2,zero,8014778 <alt_get_errno+0x24>
 801476c:	d0a00a17 	ldw	r2,-32728(gp)
 8014770:	103ee83a 	callr	r2
 8014774:	00000106 	br	801477c <alt_get_errno+0x28>
 8014778:	d0a6e404 	addi	r2,gp,-25712
}
 801477c:	e037883a 	mov	sp,fp
 8014780:	dfc00117 	ldw	ra,4(sp)
 8014784:	df000017 	ldw	fp,0(sp)
 8014788:	dec00204 	addi	sp,sp,8
 801478c:	f800283a 	ret

08014790 <read>:
}

#else /* !ALT_USE_DIRECT_DRIVERS */

int ALT_READ (int file, void *ptr, size_t len)
{
 8014790:	defff904 	addi	sp,sp,-28
 8014794:	dfc00615 	stw	ra,24(sp)
 8014798:	df000515 	stw	fp,20(sp)
 801479c:	df000504 	addi	fp,sp,20
 80147a0:	e13ffd15 	stw	r4,-12(fp)
 80147a4:	e17ffe15 	stw	r5,-8(fp)
 80147a8:	e1bfff15 	stw	r6,-4(fp)
   * A common error case is that when the file descriptor was created, the call
   * to open() failed resulting in a negative file descriptor. This is trapped
   * below so that we don't try and process an invalid file descriptor.
   */

  fd = (file < 0) ? NULL : &alt_fd_list[file];
 80147ac:	e0bffd17 	ldw	r2,-12(fp)
 80147b0:	10000816 	blt	r2,zero,80147d4 <read+0x44>
 80147b4:	01400304 	movi	r5,12
 80147b8:	e13ffd17 	ldw	r4,-12(fp)
 80147bc:	8013c380 	call	8013c38 <__mulsi3>
 80147c0:	1007883a 	mov	r3,r2
 80147c4:	008200b4 	movhi	r2,2050
 80147c8:	10af7504 	addi	r2,r2,-16940
 80147cc:	1885883a 	add	r2,r3,r2
 80147d0:	00000106 	br	80147d8 <read+0x48>
 80147d4:	0005883a 	mov	r2,zero
 80147d8:	e0bffb15 	stw	r2,-20(fp)
  
  if (fd)
 80147dc:	e0bffb17 	ldw	r2,-20(fp)
 80147e0:	10002226 	beq	r2,zero,801486c <read+0xdc>
     * If the file has not been opened with read access, or if the driver does
     * not provide an implementation of read(), generate an error. Otherwise
     * call the drivers read() function to process the request.
     */

    if (((fd->fd_flags & O_ACCMODE) != O_WRONLY) && 
 80147e4:	e0bffb17 	ldw	r2,-20(fp)
 80147e8:	10800217 	ldw	r2,8(r2)
 80147ec:	108000cc 	andi	r2,r2,3
 80147f0:	10800060 	cmpeqi	r2,r2,1
 80147f4:	1000181e 	bne	r2,zero,8014858 <read+0xc8>
        (fd->dev->read))
 80147f8:	e0bffb17 	ldw	r2,-20(fp)
 80147fc:	10800017 	ldw	r2,0(r2)
 8014800:	10800517 	ldw	r2,20(r2)
     * If the file has not been opened with read access, or if the driver does
     * not provide an implementation of read(), generate an error. Otherwise
     * call the drivers read() function to process the request.
     */

    if (((fd->fd_flags & O_ACCMODE) != O_WRONLY) && 
 8014804:	10001426 	beq	r2,zero,8014858 <read+0xc8>
        (fd->dev->read))
      {
        if ((rval = fd->dev->read(fd, ptr, len)) < 0)
 8014808:	e0bffb17 	ldw	r2,-20(fp)
 801480c:	10800017 	ldw	r2,0(r2)
 8014810:	10800517 	ldw	r2,20(r2)
 8014814:	e0ffff17 	ldw	r3,-4(fp)
 8014818:	180d883a 	mov	r6,r3
 801481c:	e17ffe17 	ldw	r5,-8(fp)
 8014820:	e13ffb17 	ldw	r4,-20(fp)
 8014824:	103ee83a 	callr	r2
 8014828:	e0bffc15 	stw	r2,-16(fp)
 801482c:	e0bffc17 	ldw	r2,-16(fp)
 8014830:	1000070e 	bge	r2,zero,8014850 <read+0xc0>
        {
          ALT_ERRNO = -rval;
 8014834:	80147540 	call	8014754 <alt_get_errno>
 8014838:	1007883a 	mov	r3,r2
 801483c:	e0bffc17 	ldw	r2,-16(fp)
 8014840:	0085c83a 	sub	r2,zero,r2
 8014844:	18800015 	stw	r2,0(r3)
          return -1;
 8014848:	00bfffc4 	movi	r2,-1
 801484c:	00000c06 	br	8014880 <read+0xf0>
        }
        return rval;
 8014850:	e0bffc17 	ldw	r2,-16(fp)
 8014854:	00000a06 	br	8014880 <read+0xf0>
      }
      else
      {
        ALT_ERRNO = EACCES;
 8014858:	80147540 	call	8014754 <alt_get_errno>
 801485c:	1007883a 	mov	r3,r2
 8014860:	00800344 	movi	r2,13
 8014864:	18800015 	stw	r2,0(r3)
 8014868:	00000406 	br	801487c <read+0xec>
      }
    }
  else
  {
    ALT_ERRNO = EBADFD;
 801486c:	80147540 	call	8014754 <alt_get_errno>
 8014870:	1007883a 	mov	r3,r2
 8014874:	00801444 	movi	r2,81
 8014878:	18800015 	stw	r2,0(r3)
  }
  return -1;
 801487c:	00bfffc4 	movi	r2,-1
}
 8014880:	e037883a 	mov	sp,fp
 8014884:	dfc00117 	ldw	ra,4(sp)
 8014888:	df000017 	ldw	fp,0(sp)
 801488c:	dec00204 	addi	sp,sp,8
 8014890:	f800283a 	ret

08014894 <alt_release_fd>:
 * File descriptors correcponding to standard in, standard out and standard 
 * error cannont be released backed to the pool. They are always reserved.
 */

void alt_release_fd (int fd)
{
 8014894:	defffc04 	addi	sp,sp,-16
 8014898:	dfc00315 	stw	ra,12(sp)
 801489c:	df000215 	stw	fp,8(sp)
 80148a0:	dc000115 	stw	r16,4(sp)
 80148a4:	df000204 	addi	fp,sp,8
 80148a8:	e13ffe15 	stw	r4,-8(fp)
  if (fd > 2)
 80148ac:	e0bffe17 	ldw	r2,-8(fp)
 80148b0:	108000d0 	cmplti	r2,r2,3
 80148b4:	1000111e 	bne	r2,zero,80148fc <alt_release_fd+0x68>
  {
    alt_fd_list[fd].fd_flags = 0;
 80148b8:	040200b4 	movhi	r16,2050
 80148bc:	842f7504 	addi	r16,r16,-16940
 80148c0:	e0bffe17 	ldw	r2,-8(fp)
 80148c4:	01400304 	movi	r5,12
 80148c8:	1009883a 	mov	r4,r2
 80148cc:	8013c380 	call	8013c38 <__mulsi3>
 80148d0:	8085883a 	add	r2,r16,r2
 80148d4:	10800204 	addi	r2,r2,8
 80148d8:	10000015 	stw	zero,0(r2)
    alt_fd_list[fd].dev      = 0;
 80148dc:	040200b4 	movhi	r16,2050
 80148e0:	842f7504 	addi	r16,r16,-16940
 80148e4:	e0bffe17 	ldw	r2,-8(fp)
 80148e8:	01400304 	movi	r5,12
 80148ec:	1009883a 	mov	r4,r2
 80148f0:	8013c380 	call	8013c38 <__mulsi3>
 80148f4:	8085883a 	add	r2,r16,r2
 80148f8:	10000015 	stw	zero,0(r2)
  }
}
 80148fc:	0001883a 	nop
 8014900:	e6ffff04 	addi	sp,fp,-4
 8014904:	dfc00217 	ldw	ra,8(sp)
 8014908:	df000117 	ldw	fp,4(sp)
 801490c:	dc000017 	ldw	r16,0(sp)
 8014910:	dec00304 	addi	sp,sp,12
 8014914:	f800283a 	ret

08014918 <sbrk>:
#endif
 
caddr_t ALT_SBRK (int incr) __attribute__ ((no_instrument_function ));

caddr_t ALT_SBRK (int incr)
{ 
 8014918:	defff904 	addi	sp,sp,-28
 801491c:	df000615 	stw	fp,24(sp)
 8014920:	df000604 	addi	fp,sp,24
 8014924:	e13fff15 	stw	r4,-4(fp)
static ALT_INLINE alt_irq_context ALT_ALWAYS_INLINE 
       alt_irq_disable_all (void)
{
  alt_irq_context context;

  NIOS2_READ_STATUS (context);
 8014928:	0005303a 	rdctl	r2,status
 801492c:	e0bffe15 	stw	r2,-8(fp)

  NIOS2_WRITE_STATUS (context & ~NIOS2_STATUS_PIE_MSK);
 8014930:	e0fffe17 	ldw	r3,-8(fp)
 8014934:	00bfff84 	movi	r2,-2
 8014938:	1884703a 	and	r2,r3,r2
 801493c:	1001703a 	wrctl	status,r2
  
  return context;
 8014940:	e0bffe17 	ldw	r2,-8(fp)
  alt_irq_context context;
  char *prev_heap_end; 

  context = alt_irq_disable_all();
 8014944:	e0bffb15 	stw	r2,-20(fp)

  /* Always return data aligned on a word boundary */
  heap_end = (char *)(((unsigned int)heap_end + 3) & ~3);
 8014948:	d0a00b17 	ldw	r2,-32724(gp)
 801494c:	10c000c4 	addi	r3,r2,3
 8014950:	00bfff04 	movi	r2,-4
 8014954:	1884703a 	and	r2,r3,r2
 8014958:	d0a00b15 	stw	r2,-32724(gp)
  if (((heap_end + incr) - __alt_heap_start) > ALT_MAX_HEAP_BYTES) {
    alt_irq_enable_all(context);
    return (caddr_t)-1;
  }
#else
  if ((heap_end + incr) > __alt_heap_limit) {
 801495c:	d0e00b17 	ldw	r3,-32724(gp)
 8014960:	e0bfff17 	ldw	r2,-4(fp)
 8014964:	1887883a 	add	r3,r3,r2
 8014968:	008200b4 	movhi	r2,2050
 801496c:	10be8004 	addi	r2,r2,-1536
 8014970:	10c0062e 	bgeu	r2,r3,801498c <sbrk+0x74>
 8014974:	e0bffb17 	ldw	r2,-20(fp)
 8014978:	e0bffa15 	stw	r2,-24(fp)
  status &= ~NIOS2_STATUS_PIE_MSK;
  status |= (context & NIOS2_STATUS_PIE_MSK);
  
  NIOS2_WRITE_STATUS (status);
#else
  NIOS2_WRITE_STATUS (context);
 801497c:	e0bffa17 	ldw	r2,-24(fp)
 8014980:	1001703a 	wrctl	status,r2
    alt_irq_enable_all(context);
    return (caddr_t)-1;
 8014984:	00bfffc4 	movi	r2,-1
 8014988:	00000b06 	br	80149b8 <sbrk+0xa0>
  }
#endif

  prev_heap_end = heap_end; 
 801498c:	d0a00b17 	ldw	r2,-32724(gp)
 8014990:	e0bffd15 	stw	r2,-12(fp)
  heap_end += incr; 
 8014994:	d0e00b17 	ldw	r3,-32724(gp)
 8014998:	e0bfff17 	ldw	r2,-4(fp)
 801499c:	1885883a 	add	r2,r3,r2
 80149a0:	d0a00b15 	stw	r2,-32724(gp)
 80149a4:	e0bffb17 	ldw	r2,-20(fp)
 80149a8:	e0bffc15 	stw	r2,-16(fp)
 80149ac:	e0bffc17 	ldw	r2,-16(fp)
 80149b0:	1001703a 	wrctl	status,r2

#endif

  alt_irq_enable_all(context);

  return (caddr_t) prev_heap_end; 
 80149b4:	e0bffd17 	ldw	r2,-12(fp)
} 
 80149b8:	e037883a 	mov	sp,fp
 80149bc:	df000017 	ldw	fp,0(sp)
 80149c0:	dec00104 	addi	sp,sp,4
 80149c4:	f800283a 	ret

080149c8 <alt_get_errno>:
#undef errno

extern int errno;

static ALT_INLINE int* alt_get_errno(void)
{
 80149c8:	defffe04 	addi	sp,sp,-8
 80149cc:	dfc00115 	stw	ra,4(sp)
 80149d0:	df000015 	stw	fp,0(sp)
 80149d4:	d839883a 	mov	fp,sp
  return ((alt_errno) ? alt_errno() : &errno);
 80149d8:	d0a00a17 	ldw	r2,-32728(gp)
 80149dc:	10000326 	beq	r2,zero,80149ec <alt_get_errno+0x24>
 80149e0:	d0a00a17 	ldw	r2,-32728(gp)
 80149e4:	103ee83a 	callr	r2
 80149e8:	00000106 	br	80149f0 <alt_get_errno+0x28>
 80149ec:	d0a6e404 	addi	r2,gp,-25712
}
 80149f0:	e037883a 	mov	sp,fp
 80149f4:	dfc00117 	ldw	ra,4(sp)
 80149f8:	df000017 	ldw	fp,0(sp)
 80149fc:	dec00204 	addi	sp,sp,8
 8014a00:	f800283a 	ret

08014a04 <write>:
}

#else /* !ALT_USE_DIRECT_DRIVERS */

int ALT_WRITE (int file, const void *ptr, size_t len)
{
 8014a04:	defff904 	addi	sp,sp,-28
 8014a08:	dfc00615 	stw	ra,24(sp)
 8014a0c:	df000515 	stw	fp,20(sp)
 8014a10:	df000504 	addi	fp,sp,20
 8014a14:	e13ffd15 	stw	r4,-12(fp)
 8014a18:	e17ffe15 	stw	r5,-8(fp)
 8014a1c:	e1bfff15 	stw	r6,-4(fp)
   * A common error case is that when the file descriptor was created, the call
   * to open() failed resulting in a negative file descriptor. This is trapped
   * below so that we don't try and process an invalid file descriptor.
   */

  fd = (file < 0) ? NULL : &alt_fd_list[file];
 8014a20:	e0bffd17 	ldw	r2,-12(fp)
 8014a24:	10000816 	blt	r2,zero,8014a48 <write+0x44>
 8014a28:	01400304 	movi	r5,12
 8014a2c:	e13ffd17 	ldw	r4,-12(fp)
 8014a30:	8013c380 	call	8013c38 <__mulsi3>
 8014a34:	1007883a 	mov	r3,r2
 8014a38:	008200b4 	movhi	r2,2050
 8014a3c:	10af7504 	addi	r2,r2,-16940
 8014a40:	1885883a 	add	r2,r3,r2
 8014a44:	00000106 	br	8014a4c <write+0x48>
 8014a48:	0005883a 	mov	r2,zero
 8014a4c:	e0bffb15 	stw	r2,-20(fp)
  
  if (fd)
 8014a50:	e0bffb17 	ldw	r2,-20(fp)
 8014a54:	10002126 	beq	r2,zero,8014adc <write+0xd8>
     * If the file has not been opened with write access, or if the driver does
     * not provide an implementation of write(), generate an error. Otherwise
     * call the drivers write() function to process the request.
     */

    if (((fd->fd_flags & O_ACCMODE) != O_RDONLY) && fd->dev->write)
 8014a58:	e0bffb17 	ldw	r2,-20(fp)
 8014a5c:	10800217 	ldw	r2,8(r2)
 8014a60:	108000cc 	andi	r2,r2,3
 8014a64:	10001826 	beq	r2,zero,8014ac8 <write+0xc4>
 8014a68:	e0bffb17 	ldw	r2,-20(fp)
 8014a6c:	10800017 	ldw	r2,0(r2)
 8014a70:	10800617 	ldw	r2,24(r2)
 8014a74:	10001426 	beq	r2,zero,8014ac8 <write+0xc4>
    {
      
      /* ALT_LOG - see altera_hal/HAL/inc/sys/alt_log_printf.h */
      ALT_LOG_WRITE_FUNCTION(ptr,len);

      if ((rval = fd->dev->write(fd, ptr, len)) < 0)
 8014a78:	e0bffb17 	ldw	r2,-20(fp)
 8014a7c:	10800017 	ldw	r2,0(r2)
 8014a80:	10800617 	ldw	r2,24(r2)
 8014a84:	e0ffff17 	ldw	r3,-4(fp)
 8014a88:	180d883a 	mov	r6,r3
 8014a8c:	e17ffe17 	ldw	r5,-8(fp)
 8014a90:	e13ffb17 	ldw	r4,-20(fp)
 8014a94:	103ee83a 	callr	r2
 8014a98:	e0bffc15 	stw	r2,-16(fp)
 8014a9c:	e0bffc17 	ldw	r2,-16(fp)
 8014aa0:	1000070e 	bge	r2,zero,8014ac0 <write+0xbc>
      {
        ALT_ERRNO = -rval;
 8014aa4:	80149c80 	call	80149c8 <alt_get_errno>
 8014aa8:	1007883a 	mov	r3,r2
 8014aac:	e0bffc17 	ldw	r2,-16(fp)
 8014ab0:	0085c83a 	sub	r2,zero,r2
 8014ab4:	18800015 	stw	r2,0(r3)
        return -1;
 8014ab8:	00bfffc4 	movi	r2,-1
 8014abc:	00000c06 	br	8014af0 <write+0xec>
      }
      return rval;
 8014ac0:	e0bffc17 	ldw	r2,-16(fp)
 8014ac4:	00000a06 	br	8014af0 <write+0xec>
    }
    else
    {
      ALT_ERRNO = EACCES;
 8014ac8:	80149c80 	call	80149c8 <alt_get_errno>
 8014acc:	1007883a 	mov	r3,r2
 8014ad0:	00800344 	movi	r2,13
 8014ad4:	18800015 	stw	r2,0(r3)
 8014ad8:	00000406 	br	8014aec <write+0xe8>
    }
  }
  else  
  {
    ALT_ERRNO = EBADFD;
 8014adc:	80149c80 	call	80149c8 <alt_get_errno>
 8014ae0:	1007883a 	mov	r3,r2
 8014ae4:	00801444 	movi	r2,81
 8014ae8:	18800015 	stw	r2,0(r3)
  }
  return -1;
 8014aec:	00bfffc4 	movi	r2,-1
}
 8014af0:	e037883a 	mov	sp,fp
 8014af4:	dfc00117 	ldw	ra,4(sp)
 8014af8:	df000017 	ldw	fp,0(sp)
 8014afc:	dec00204 	addi	sp,sp,8
 8014b00:	f800283a 	ret

08014b04 <alt_dev_reg>:
 */

extern int alt_fs_reg  (alt_dev* dev); 

static ALT_INLINE int alt_dev_reg (alt_dev* dev)
{
 8014b04:	defffd04 	addi	sp,sp,-12
 8014b08:	dfc00215 	stw	ra,8(sp)
 8014b0c:	df000115 	stw	fp,4(sp)
 8014b10:	df000104 	addi	fp,sp,4
 8014b14:	e13fff15 	stw	r4,-4(fp)
  extern alt_llist alt_dev_list;

  return alt_dev_llist_insert ((alt_dev_llist*) dev, &alt_dev_list);
 8014b18:	d1600704 	addi	r5,gp,-32740
 8014b1c:	e13fff17 	ldw	r4,-4(fp)
 8014b20:	8019fe40 	call	8019fe4 <alt_dev_llist_insert>
}
 8014b24:	e037883a 	mov	sp,fp
 8014b28:	dfc00117 	ldw	ra,4(sp)
 8014b2c:	df000017 	ldw	fp,0(sp)
 8014b30:	dec00204 	addi	sp,sp,8
 8014b34:	f800283a 	ret

08014b38 <alt_irq_init>:
 * The "base" parameter is ignored and only
 * present for backwards-compatibility.
 */

void alt_irq_init ( const void* base )
{
 8014b38:	defffd04 	addi	sp,sp,-12
 8014b3c:	dfc00215 	stw	ra,8(sp)
 8014b40:	df000115 	stw	fp,4(sp)
 8014b44:	df000104 	addi	fp,sp,4
 8014b48:	e13fff15 	stw	r4,-4(fp)
    ALTERA_NIOS2_GEN2_IRQ_INIT ( CPU_NIOS, cpu_nios);
 8014b4c:	801a9280 	call	801a928 <altera_nios2_gen2_irq_init>
 * alt_irq_cpu_enable_interrupts() enables the CPU to start taking interrupts.
 */
static ALT_INLINE void ALT_ALWAYS_INLINE 
       alt_irq_cpu_enable_interrupts (void)
{
    NIOS2_WRITE_STATUS(NIOS2_STATUS_PIE_MSK
 8014b50:	00800044 	movi	r2,1
 8014b54:	1001703a 	wrctl	status,r2
    alt_irq_cpu_enable_interrupts();
}
 8014b58:	0001883a 	nop
 8014b5c:	e037883a 	mov	sp,fp
 8014b60:	dfc00117 	ldw	ra,4(sp)
 8014b64:	df000017 	ldw	fp,0(sp)
 8014b68:	dec00204 	addi	sp,sp,8
 8014b6c:	f800283a 	ret

08014b70 <alt_sys_init>:
 * Initialize the non-interrupt controller devices.
 * Called after alt_irq_init().
 */

void alt_sys_init( void )
{
 8014b70:	defffe04 	addi	sp,sp,-8
 8014b74:	dfc00115 	stw	ra,4(sp)
 8014b78:	df000015 	stw	fp,0(sp)
 8014b7c:	d839883a 	mov	fp,sp
    ALTERA_AVALON_JTAG_UART_INIT ( JTAG, jtag);
 8014b80:	000d883a 	mov	r6,zero
 8014b84:	000b883a 	mov	r5,zero
 8014b88:	010200b4 	movhi	r4,2050
 8014b8c:	212fdf04 	addi	r4,r4,-16516
 8014b90:	80190d40 	call	80190d4 <altera_avalon_jtag_uart_init>
 8014b94:	010200b4 	movhi	r4,2050
 8014b98:	212fd504 	addi	r4,r4,-16556
 8014b9c:	8014b040 	call	8014b04 <alt_dev_reg>
    ALTERA_AVALON_SYSID_QSYS_INIT ( SYSID_QSYS_0, sysid_qsys_0);
 8014ba0:	0001883a 	nop
    ALTERA_HOSTFS_INIT ( ALTERA_HOSTFS, altera_hostfs);
 8014ba4:	010200b4 	movhi	r4,2050
 8014ba8:	2133ed04 	addi	r4,r4,-12364
 8014bac:	801a2200 	call	801a220 <alt_fs_reg>
    ALTERA_UP_SD_CARD_AVALON_INTERFACE_INIT ( ALTERA_UP_SD_CARD_AVALON_INTERFACE_0, Altera_UP_SD_Card_Avalon_Interface_0);
 8014bb0:	010200b4 	movhi	r4,2050
 8014bb4:	2133f704 	addi	r4,r4,-12324
 8014bb8:	8014b040 	call	8014b04 <alt_dev_reg>
}
 8014bbc:	0001883a 	nop
 8014bc0:	e037883a 	mov	sp,fp
 8014bc4:	dfc00117 	ldw	ra,4(sp)
 8014bc8:	df000017 	ldw	fp,0(sp)
 8014bcc:	dec00204 	addi	sp,sp,8
 8014bd0:	f800283a 	ret

08014bd4 <Write_Sector_Data>:
///////////////////////////////////////////////////////////////////////////

        
bool Write_Sector_Data(int sector_index, int partition_offset)
// This function writes a sector at the specified address on the SD Card.
{
 8014bd4:	defffa04 	addi	sp,sp,-24
 8014bd8:	dfc00515 	stw	ra,20(sp)
 8014bdc:	df000415 	stw	fp,16(sp)
 8014be0:	df000404 	addi	fp,sp,16
 8014be4:	e13ffe15 	stw	r4,-8(fp)
 8014be8:	e17fff15 	stw	r5,-4(fp)
    bool result = false;
 8014bec:	e03ffc15 	stw	zero,-16(fp)
    
    if (alt_up_sd_card_is_Present())
 8014bf0:	80179740 	call	8017974 <alt_up_sd_card_is_Present>
 8014bf4:	10001e26 	beq	r2,zero,8014c70 <Write_Sector_Data+0x9c>
    {
        short int reg_state = 0xff;
 8014bf8:	00803fc4 	movi	r2,255
 8014bfc:	e0bffd0d 	sth	r2,-12(fp)

		/* Multiply sector offset by sector size to get the address. Sector size is 512. Also,
         * the SD card reads data in 512 byte chunks, so the address must be a multiple of 512. */
        IOWR_32DIRECT(command_argument_register, 0, (sector_index + partition_offset)*512);
 8014c00:	d0a6f117 	ldw	r2,-25660(gp)
 8014c04:	e13ffe17 	ldw	r4,-8(fp)
 8014c08:	e0ffff17 	ldw	r3,-4(fp)
 8014c0c:	20c7883a 	add	r3,r4,r3
 8014c10:	1806927a 	slli	r3,r3,9
 8014c14:	10c00035 	stwio	r3,0(r2)
        IOWR_16DIRECT(command_register, 0, CMD_WRITE_BLOCK);
 8014c18:	d0a6f017 	ldw	r2,-25664(gp)
 8014c1c:	00c00604 	movi	r3,24
 8014c20:	10c0002d 	sthio	r3,0(r2)
        do {
            reg_state = (short int) IORD_16DIRECT(aux_status_register,0);
 8014c24:	d0a6ed17 	ldw	r2,-25676(gp)
 8014c28:	1080002b 	ldhuio	r2,0(r2)
 8014c2c:	10bfffcc 	andi	r2,r2,65535
 8014c30:	e0bffd0d 	sth	r2,-12(fp)
        } while ((reg_state & 0x04)!=0);
 8014c34:	e0bffd0b 	ldhu	r2,-12(fp)
 8014c38:	10bfffcc 	andi	r2,r2,65535
 8014c3c:	1080010c 	andi	r2,r2,4
 8014c40:	103ff81e 	bne	r2,zero,8014c24 <_gp+0xfffefc1c>
        // Make sure the request did not time out.
        if ((reg_state & 0x10) == 0)
 8014c44:	e0bffd0b 	ldhu	r2,-12(fp)
 8014c48:	10bfffcc 	andi	r2,r2,65535
 8014c4c:	1080040c 	andi	r2,r2,16
 8014c50:	1000071e 	bne	r2,zero,8014c70 <Write_Sector_Data+0x9c>
        {
            result = true;
 8014c54:	00800044 	movi	r2,1
 8014c58:	e0bffc15 	stw	r2,-16(fp)
            current_sector_modified = false;
 8014c5c:	d026f615 	stw	zero,-25640(gp)
            current_sector_index = sector_index+partition_offset;
 8014c60:	e0fffe17 	ldw	r3,-8(fp)
 8014c64:	e0bfff17 	ldw	r2,-4(fp)
 8014c68:	1885883a 	add	r2,r3,r2
 8014c6c:	d0a6f715 	stw	r2,-25636(gp)
        }
    }
    return result;
 8014c70:	e0bffc17 	ldw	r2,-16(fp)
}
 8014c74:	e037883a 	mov	sp,fp
 8014c78:	dfc00117 	ldw	ra,4(sp)
 8014c7c:	df000017 	ldw	fp,0(sp)
 8014c80:	dec00204 	addi	sp,sp,8
 8014c84:	f800283a 	ret

08014c88 <Save_Modified_Sector>:


bool Save_Modified_Sector()
// If the sector has been modified, then save it to the SD Card.
{
 8014c88:	defffd04 	addi	sp,sp,-12
 8014c8c:	dfc00215 	stw	ra,8(sp)
 8014c90:	df000115 	stw	fp,4(sp)
 8014c94:	df000104 	addi	fp,sp,4
    bool result = true;
 8014c98:	00800044 	movi	r2,1
 8014c9c:	e0bfff15 	stw	r2,-4(fp)
    if (current_sector_modified)
 8014ca0:	d0a6f617 	ldw	r2,-25640(gp)
 8014ca4:	10000526 	beq	r2,zero,8014cbc <Save_Modified_Sector+0x34>
    {
        result = Write_Sector_Data(current_sector_index, 0);
 8014ca8:	d0a6f717 	ldw	r2,-25636(gp)
 8014cac:	000b883a 	mov	r5,zero
 8014cb0:	1009883a 	mov	r4,r2
 8014cb4:	8014bd40 	call	8014bd4 <Write_Sector_Data>
 8014cb8:	e0bfff15 	stw	r2,-4(fp)
    }
    return result;
 8014cbc:	e0bfff17 	ldw	r2,-4(fp)
}
 8014cc0:	e037883a 	mov	sp,fp
 8014cc4:	dfc00117 	ldw	ra,4(sp)
 8014cc8:	df000017 	ldw	fp,0(sp)
 8014ccc:	dec00204 	addi	sp,sp,8
 8014cd0:	f800283a 	ret

08014cd4 <Read_Sector_Data>:


bool Read_Sector_Data(int sector_index, int partition_offset)
// This function reads a sector at the specified address on the SD Card.
{
 8014cd4:	defffa04 	addi	sp,sp,-24
 8014cd8:	dfc00515 	stw	ra,20(sp)
 8014cdc:	df000415 	stw	fp,16(sp)
 8014ce0:	df000404 	addi	fp,sp,16
 8014ce4:	e13ffe15 	stw	r4,-8(fp)
 8014ce8:	e17fff15 	stw	r5,-4(fp)
	bool result = false;
 8014cec:	e03ffc15 	stw	zero,-16(fp)
    
	if (alt_up_sd_card_is_Present())
 8014cf0:	80179740 	call	8017974 <alt_up_sd_card_is_Present>
 8014cf4:	10002726 	beq	r2,zero,8014d94 <Read_Sector_Data+0xc0>
	{
		short int reg_state = 0xff;
 8014cf8:	00803fc4 	movi	r2,255
 8014cfc:	e0bffd0d 	sth	r2,-12(fp)
        
        /* Write data to the SD card if the current buffer is out of date. */
        if (current_sector_modified)
 8014d00:	d0a6f617 	ldw	r2,-25640(gp)
 8014d04:	10000726 	beq	r2,zero,8014d24 <Read_Sector_Data+0x50>
        {
            if (Write_Sector_Data(current_sector_index, 0) == false)
 8014d08:	d0a6f717 	ldw	r2,-25636(gp)
 8014d0c:	000b883a 	mov	r5,zero
 8014d10:	1009883a 	mov	r4,r2
 8014d14:	8014bd40 	call	8014bd4 <Write_Sector_Data>
 8014d18:	1000021e 	bne	r2,zero,8014d24 <Read_Sector_Data+0x50>
            {
                return false;
 8014d1c:	0005883a 	mov	r2,zero
 8014d20:	00001d06 	br	8014d98 <Read_Sector_Data+0xc4>
            }
        }
		/* Multiply sector offset by sector size to get the address. Sector size is 512. Also,
		 * the SD card reads data in 512 byte chunks, so the address must be a multiple of 512. */
        IOWR_32DIRECT(command_argument_register, 0, (sector_index + partition_offset)*512);
 8014d24:	d0a6f117 	ldw	r2,-25660(gp)
 8014d28:	e13ffe17 	ldw	r4,-8(fp)
 8014d2c:	e0ffff17 	ldw	r3,-4(fp)
 8014d30:	20c7883a 	add	r3,r4,r3
 8014d34:	1806927a 	slli	r3,r3,9
 8014d38:	10c00035 	stwio	r3,0(r2)
        IOWR_16DIRECT(command_register, 0, CMD_READ_BLOCK);
 8014d3c:	d0a6f017 	ldw	r2,-25664(gp)
 8014d40:	00c00444 	movi	r3,17
 8014d44:	10c0002d 	sthio	r3,0(r2)
		do {
			reg_state = (short int) IORD_16DIRECT(aux_status_register,0);
 8014d48:	d0a6ed17 	ldw	r2,-25676(gp)
 8014d4c:	1080002b 	ldhuio	r2,0(r2)
 8014d50:	10bfffcc 	andi	r2,r2,65535
 8014d54:	e0bffd0d 	sth	r2,-12(fp)
		} while ((reg_state & 0x04)!=0);
 8014d58:	e0bffd0b 	ldhu	r2,-12(fp)
 8014d5c:	10bfffcc 	andi	r2,r2,65535
 8014d60:	1080010c 	andi	r2,r2,4
 8014d64:	103ff81e 	bne	r2,zero,8014d48 <_gp+0xfffefd40>
		// Make sure the request did not time out.
		if ((reg_state & 0x10) == 0)
 8014d68:	e0bffd0b 	ldhu	r2,-12(fp)
 8014d6c:	10bfffcc 	andi	r2,r2,65535
 8014d70:	1080040c 	andi	r2,r2,16
 8014d74:	1000071e 	bne	r2,zero,8014d94 <Read_Sector_Data+0xc0>
		{
			result = true;
 8014d78:	00800044 	movi	r2,1
 8014d7c:	e0bffc15 	stw	r2,-16(fp)
            current_sector_modified = false;
 8014d80:	d026f615 	stw	zero,-25640(gp)
            current_sector_index = sector_index+partition_offset;
 8014d84:	e0fffe17 	ldw	r3,-8(fp)
 8014d88:	e0bfff17 	ldw	r2,-4(fp)
 8014d8c:	1885883a 	add	r2,r3,r2
 8014d90:	d0a6f715 	stw	r2,-25636(gp)
		}
	}
	return result;
 8014d94:	e0bffc17 	ldw	r2,-16(fp)
}
 8014d98:	e037883a 	mov	sp,fp
 8014d9c:	dfc00117 	ldw	ra,4(sp)
 8014da0:	df000017 	ldw	fp,0(sp)
 8014da4:	dec00204 	addi	sp,sp,8
 8014da8:	f800283a 	ret

08014dac <get_cluster_flag>:


bool get_cluster_flag(unsigned int cluster_index, unsigned short int *flag)
// Read a cluster flag.
{
 8014dac:	defffb04 	addi	sp,sp,-20
 8014db0:	dfc00415 	stw	ra,16(sp)
 8014db4:	df000315 	stw	fp,12(sp)
 8014db8:	df000304 	addi	fp,sp,12
 8014dbc:	e13ffe15 	stw	r4,-8(fp)
 8014dc0:	e17fff15 	stw	r5,-4(fp)
    unsigned int sector_index = (cluster_index / 256) + fat_partition_offset_in_512_byte_sectors;
 8014dc4:	e0bffe17 	ldw	r2,-8(fp)
 8014dc8:	1004d23a 	srli	r2,r2,8
